	.section	__TEXT,__text,regular,pure_instructions
	.build_version macos, 14, 0	sdk_version 14, 2
	.globl	__Z13get_thread_idv             ; -- Begin function _Z13get_thread_idv
	.p2align	2
__Z13get_thread_idv:                    ; @_Z13get_thread_idv
Lfunc_begin0:
	.cfi_startproc
	.cfi_personality 155, ___gxx_personality_v0
	.cfi_lsda 16, Lexception0
; %bb.0:
	sub	sp, sp, #384
	.cfi_def_cfa_offset 384
	stp	x28, x27, [sp, #352]            ; 16-byte Folded Spill
	stp	x29, x30, [sp, #368]            ; 16-byte Folded Spill
	add	x29, sp, #368
	.cfi_def_cfa w29, 16
	.cfi_offset w30, -8
	.cfi_offset w29, -16
	.cfi_offset w27, -24
	.cfi_offset w28, -32
	sub	x9, x29, #32
	str	x9, [sp, #16]                   ; 8-byte Folded Spill
	str	x8, [sp, #8]                    ; 8-byte Folded Spill
	str	x8, [x9, #8]
	bl	__ZNSt3__111this_thread6get_idB7v160006Ev
	ldr	x8, [sp, #16]                   ; 8-byte Folded Reload
	str	x0, [x8]
	add	x0, sp, #56
	str	x0, [sp, #24]                   ; 8-byte Folded Spill
	bl	__ZNSt3__118basic_stringstreamIcNS_11char_traitsIcEENS_9allocatorIcEEEC1B7v160006Ev
	ldr	x9, [sp, #16]                   ; 8-byte Folded Reload
	ldr	x8, [sp, #24]                   ; 8-byte Folded Reload
	ldr	x9, [x9]
	str	x9, [sp, #48]
	ldr	x1, [sp, #48]
Ltmp0:
	add	x0, x8, #16
	bl	__ZNSt3__1lsB7v160006IcNS_11char_traitsIcEEEERNS_13basic_ostreamIT_T0_EES7_NS_11__thread_idE
Ltmp1:
	b	LBB0_1
LBB0_1:
	ldr	x8, [sp, #8]                    ; 8-byte Folded Reload
	mov	w9, #0
	and	w9, w9, #0x1
	and	w9, w9, #0x1
	strb	w9, [sp, #35]
Ltmp2:
	add	x0, sp, #56
	bl	__ZNKSt3__118basic_stringstreamIcNS_11char_traitsIcEENS_9allocatorIcEEE3strB7v160006Ev
Ltmp3:
	b	LBB0_2
LBB0_2:
	mov	w8, #1
	and	w8, w8, #0x1
	and	w8, w8, #0x1
	strb	w8, [sp, #35]
	ldrb	w8, [sp, #35]
	tbnz	w8, #0, LBB0_5
	b	LBB0_4
LBB0_3:
Ltmp4:
	str	x0, [sp, #40]
	mov	x8, x1
	str	w8, [sp, #36]
	add	x0, sp, #56
	bl	__ZNSt3__118basic_stringstreamIcNS_11char_traitsIcEENS_9allocatorIcEEED1Ev
	b	LBB0_6
LBB0_4:
	ldr	x0, [sp, #8]                    ; 8-byte Folded Reload
	bl	__ZNSt3__112basic_stringIcNS_11char_traitsIcEENS_9allocatorIcEEED1Ev
	b	LBB0_5
LBB0_5:
	add	x0, sp, #56
	bl	__ZNSt3__118basic_stringstreamIcNS_11char_traitsIcEENS_9allocatorIcEEED1Ev
	ldp	x29, x30, [sp, #368]            ; 16-byte Folded Reload
	ldp	x28, x27, [sp, #352]            ; 16-byte Folded Reload
	add	sp, sp, #384
	ret
LBB0_6:
	ldr	x0, [sp, #40]
	bl	__Unwind_Resume
Lfunc_end0:
	.cfi_endproc
	.section	__TEXT,__gcc_except_tab
	.p2align	2, 0x0
GCC_except_table0:
Lexception0:
	.byte	255                             ; @LPStart Encoding = omit
	.byte	255                             ; @TType Encoding = omit
	.byte	1                               ; Call site Encoding = uleb128
	.uleb128 Lcst_end0-Lcst_begin0
Lcst_begin0:
	.uleb128 Lfunc_begin0-Lfunc_begin0      ; >> Call Site 1 <<
	.uleb128 Ltmp0-Lfunc_begin0             ;   Call between Lfunc_begin0 and Ltmp0
	.byte	0                               ;     has no landing pad
	.byte	0                               ;   On action: cleanup
	.uleb128 Ltmp0-Lfunc_begin0             ; >> Call Site 2 <<
	.uleb128 Ltmp3-Ltmp0                    ;   Call between Ltmp0 and Ltmp3
	.uleb128 Ltmp4-Lfunc_begin0             ;     jumps to Ltmp4
	.byte	0                               ;   On action: cleanup
	.uleb128 Ltmp3-Lfunc_begin0             ; >> Call Site 3 <<
	.uleb128 Lfunc_end0-Ltmp3               ;   Call between Ltmp3 and Lfunc_end0
	.byte	0                               ;     has no landing pad
	.byte	0                               ;   On action: cleanup
Lcst_end0:
	.p2align	2, 0x0
                                        ; -- End function
	.section	__TEXT,__text,regular,pure_instructions
	.private_extern	__ZNSt3__111this_thread6get_idB7v160006Ev ; -- Begin function _ZNSt3__111this_thread6get_idB7v160006Ev
	.globl	__ZNSt3__111this_thread6get_idB7v160006Ev
	.weak_definition	__ZNSt3__111this_thread6get_idB7v160006Ev
	.p2align	2
__ZNSt3__111this_thread6get_idB7v160006Ev: ; @_ZNSt3__111this_thread6get_idB7v160006Ev
Lfunc_begin1:
	.cfi_startproc
	.cfi_personality 155, ___gxx_personality_v0
	.cfi_lsda 16, Lexception1
; %bb.0:
	sub	sp, sp, #32
	.cfi_def_cfa_offset 32
	stp	x29, x30, [sp, #16]             ; 16-byte Folded Spill
	add	x29, sp, #16
	.cfi_def_cfa w29, 16
	.cfi_offset w30, -8
	.cfi_offset w29, -16
Ltmp5:
	bl	__ZNSt3__130__libcpp_thread_get_current_idB7v160006Ev
	str	x0, [sp]                        ; 8-byte Folded Spill
Ltmp6:
	b	LBB1_1
LBB1_1:
Ltmp7:
	ldr	x1, [sp]                        ; 8-byte Folded Reload
	add	x0, sp, #8
	bl	__ZNSt3__111__thread_idC1B7v160006EP17_opaque_pthread_t
Ltmp8:
	b	LBB1_2
LBB1_2:
	ldr	x0, [sp, #8]
	ldp	x29, x30, [sp, #16]             ; 16-byte Folded Reload
	add	sp, sp, #32
	ret
LBB1_3:
Ltmp9:
	bl	___clang_call_terminate
Lfunc_end1:
	.cfi_endproc
	.section	__TEXT,__gcc_except_tab
	.p2align	2, 0x0
GCC_except_table1:
Lexception1:
	.byte	255                             ; @LPStart Encoding = omit
	.byte	155                             ; @TType Encoding = indirect pcrel sdata4
	.uleb128 Lttbase0-Lttbaseref0
Lttbaseref0:
	.byte	1                               ; Call site Encoding = uleb128
	.uleb128 Lcst_end1-Lcst_begin1
Lcst_begin1:
	.uleb128 Ltmp5-Lfunc_begin1             ; >> Call Site 1 <<
	.uleb128 Ltmp8-Ltmp5                    ;   Call between Ltmp5 and Ltmp8
	.uleb128 Ltmp9-Lfunc_begin1             ;     jumps to Ltmp9
	.byte	1                               ;   On action: 1
Lcst_end1:
	.byte	1                               ; >> Action Record 1 <<
                                        ;   Catch TypeInfo 1
	.byte	0                               ;   No further actions
	.p2align	2, 0x0
                                        ; >> Catch TypeInfos <<
	.long	0                               ; TypeInfo 1
Lttbase0:
	.p2align	2, 0x0
                                        ; -- End function
	.section	__TEXT,__text,regular,pure_instructions
	.private_extern	__ZNSt3__118basic_stringstreamIcNS_11char_traitsIcEENS_9allocatorIcEEEC1B7v160006Ev ; -- Begin function _ZNSt3__118basic_stringstreamIcNS_11char_traitsIcEENS_9allocatorIcEEEC1B7v160006Ev
	.globl	__ZNSt3__118basic_stringstreamIcNS_11char_traitsIcEENS_9allocatorIcEEEC1B7v160006Ev
	.weak_def_can_be_hidden	__ZNSt3__118basic_stringstreamIcNS_11char_traitsIcEENS_9allocatorIcEEEC1B7v160006Ev
	.p2align	2
__ZNSt3__118basic_stringstreamIcNS_11char_traitsIcEENS_9allocatorIcEEEC1B7v160006Ev: ; @_ZNSt3__118basic_stringstreamIcNS_11char_traitsIcEENS_9allocatorIcEEEC1B7v160006Ev
Lfunc_begin2:
	.cfi_startproc
	.cfi_personality 155, ___gxx_personality_v0
	.cfi_lsda 16, Lexception2
; %bb.0:
	sub	sp, sp, #80
	.cfi_def_cfa_offset 80
	stp	x29, x30, [sp, #64]             ; 16-byte Folded Spill
	add	x29, sp, #64
	.cfi_def_cfa w29, 16
	.cfi_offset w30, -8
	.cfi_offset w29, -16
	adrp	x8, __ZTVNSt3__118basic_stringstreamIcNS_11char_traitsIcEENS_9allocatorIcEEEE@GOTPAGE
	ldr	x8, [x8, __ZTVNSt3__118basic_stringstreamIcNS_11char_traitsIcEENS_9allocatorIcEEEE@GOTPAGEOFF]
	add	x9, x8, #24
	str	x9, [sp]                        ; 8-byte Folded Spill
	add	x9, x8, #104
	str	x9, [sp, #8]                    ; 8-byte Folded Spill
	add	x8, x8, #64
	str	x8, [sp, #16]                   ; 8-byte Folded Spill
	adrp	x8, __ZTTNSt3__118basic_stringstreamIcNS_11char_traitsIcEENS_9allocatorIcEEEE@GOTPAGE
	ldr	x8, [x8, __ZTTNSt3__118basic_stringstreamIcNS_11char_traitsIcEENS_9allocatorIcEEEE@GOTPAGEOFF]
	add	x8, x8, #8
	str	x8, [sp, #24]                   ; 8-byte Folded Spill
	stur	x0, [x29, #-8]
	ldur	x8, [x29, #-8]
	str	x8, [sp, #32]                   ; 8-byte Folded Spill
	add	x0, x8, #128
	bl	__ZNSt3__19basic_iosIcNS_11char_traitsIcEEEC2B7v160006Ev
	ldr	x11, [sp]                       ; 8-byte Folded Reload
	ldr	x10, [sp, #8]                   ; 8-byte Folded Reload
	ldr	x9, [sp, #16]                   ; 8-byte Folded Reload
	ldr	x1, [sp, #24]                   ; 8-byte Folded Reload
	ldr	x8, [sp, #32]                   ; 8-byte Folded Reload
	str	x11, [x8]
	str	x10, [x8, #128]
	str	x9, [x8, #16]
Ltmp10:
	mov	x0, x8
	add	x2, x8, #24
	bl	__ZNSt3__114basic_iostreamIcNS_11char_traitsIcEEEC2B7v160006EPNS_15basic_streambufIcS2_EE
Ltmp11:
	b	LBB2_1
LBB2_1:
	ldr	x8, [sp, #32]                   ; 8-byte Folded Reload
	ldr	x9, [sp, #16]                   ; 8-byte Folded Reload
	ldr	x10, [sp, #8]                   ; 8-byte Folded Reload
	ldr	x11, [sp]                       ; 8-byte Folded Reload
	str	x11, [x8]
	str	x10, [x8, #128]
	str	x9, [x8, #16]
	add	x0, x8, #24
Ltmp13:
	mov	w1, #24
	bl	__ZNSt3__115basic_stringbufIcNS_11char_traitsIcEENS_9allocatorIcEEEC1B7v160006Ej
Ltmp14:
	b	LBB2_2
LBB2_2:
	ldr	x0, [sp, #32]                   ; 8-byte Folded Reload
	ldp	x29, x30, [sp, #64]             ; 16-byte Folded Reload
	add	sp, sp, #80
	ret
LBB2_3:
Ltmp12:
	stur	x0, [x29, #-16]
	mov	x8, x1
	stur	w8, [x29, #-20]
	b	LBB2_5
LBB2_4:
Ltmp15:
	mov	x9, x0
	ldr	x0, [sp, #32]                   ; 8-byte Folded Reload
	mov	x8, x1
	ldr	x1, [sp, #24]                   ; 8-byte Folded Reload
	stur	x9, [x29, #-16]
                                        ; kill: def $w8 killed $w8 killed $x8
	stur	w8, [x29, #-20]
	bl	__ZNSt3__114basic_iostreamIcNS_11char_traitsIcEEED2Ev
	b	LBB2_5
LBB2_5:
	ldr	x8, [sp, #32]                   ; 8-byte Folded Reload
	add	x0, x8, #128
	bl	__ZNSt3__19basic_iosIcNS_11char_traitsIcEEED2Ev
	b	LBB2_6
LBB2_6:
	ldur	x0, [x29, #-16]
	bl	__Unwind_Resume
Lfunc_end2:
	.cfi_endproc
	.section	__TEXT,__gcc_except_tab
	.p2align	2, 0x0
GCC_except_table2:
Lexception2:
	.byte	255                             ; @LPStart Encoding = omit
	.byte	255                             ; @TType Encoding = omit
	.byte	1                               ; Call site Encoding = uleb128
	.uleb128 Lcst_end2-Lcst_begin2
Lcst_begin2:
	.uleb128 Lfunc_begin2-Lfunc_begin2      ; >> Call Site 1 <<
	.uleb128 Ltmp10-Lfunc_begin2            ;   Call between Lfunc_begin2 and Ltmp10
	.byte	0                               ;     has no landing pad
	.byte	0                               ;   On action: cleanup
	.uleb128 Ltmp10-Lfunc_begin2            ; >> Call Site 2 <<
	.uleb128 Ltmp11-Ltmp10                  ;   Call between Ltmp10 and Ltmp11
	.uleb128 Ltmp12-Lfunc_begin2            ;     jumps to Ltmp12
	.byte	0                               ;   On action: cleanup
	.uleb128 Ltmp13-Lfunc_begin2            ; >> Call Site 3 <<
	.uleb128 Ltmp14-Ltmp13                  ;   Call between Ltmp13 and Ltmp14
	.uleb128 Ltmp15-Lfunc_begin2            ;     jumps to Ltmp15
	.byte	0                               ;   On action: cleanup
	.uleb128 Ltmp14-Lfunc_begin2            ; >> Call Site 4 <<
	.uleb128 Lfunc_end2-Ltmp14              ;   Call between Ltmp14 and Lfunc_end2
	.byte	0                               ;     has no landing pad
	.byte	0                               ;   On action: cleanup
Lcst_end2:
	.p2align	2, 0x0
                                        ; -- End function
	.section	__TEXT,__text,regular,pure_instructions
	.private_extern	__ZNSt3__1lsB7v160006IcNS_11char_traitsIcEEEERNS_13basic_ostreamIT_T0_EES7_NS_11__thread_idE ; -- Begin function _ZNSt3__1lsB7v160006IcNS_11char_traitsIcEEEERNS_13basic_ostreamIT_T0_EES7_NS_11__thread_idE
	.globl	__ZNSt3__1lsB7v160006IcNS_11char_traitsIcEEEERNS_13basic_ostreamIT_T0_EES7_NS_11__thread_idE
	.weak_definition	__ZNSt3__1lsB7v160006IcNS_11char_traitsIcEEEERNS_13basic_ostreamIT_T0_EES7_NS_11__thread_idE
	.p2align	2
__ZNSt3__1lsB7v160006IcNS_11char_traitsIcEEEERNS_13basic_ostreamIT_T0_EES7_NS_11__thread_idE: ; @_ZNSt3__1lsB7v160006IcNS_11char_traitsIcEEEERNS_13basic_ostreamIT_T0_EES7_NS_11__thread_idE
	.cfi_startproc
; %bb.0:
	sub	sp, sp, #32
	.cfi_def_cfa_offset 32
	stp	x29, x30, [sp, #16]             ; 16-byte Folded Spill
	add	x29, sp, #16
	.cfi_def_cfa w29, 16
	.cfi_offset w30, -8
	.cfi_offset w29, -16
	str	x1, [sp, #8]
	str	x0, [sp]
	ldr	x0, [sp]
	ldr	x1, [sp, #8]
	bl	__ZNSt3__113basic_ostreamIcNS_11char_traitsIcEEElsEPKv
	ldp	x29, x30, [sp, #16]             ; 16-byte Folded Reload
	add	sp, sp, #32
	ret
	.cfi_endproc
                                        ; -- End function
	.private_extern	__ZNKSt3__118basic_stringstreamIcNS_11char_traitsIcEENS_9allocatorIcEEE3strB7v160006Ev ; -- Begin function _ZNKSt3__118basic_stringstreamIcNS_11char_traitsIcEENS_9allocatorIcEEE3strB7v160006Ev
	.globl	__ZNKSt3__118basic_stringstreamIcNS_11char_traitsIcEENS_9allocatorIcEEE3strB7v160006Ev
	.weak_definition	__ZNKSt3__118basic_stringstreamIcNS_11char_traitsIcEENS_9allocatorIcEEE3strB7v160006Ev
	.p2align	2
__ZNKSt3__118basic_stringstreamIcNS_11char_traitsIcEENS_9allocatorIcEEE3strB7v160006Ev: ; @_ZNKSt3__118basic_stringstreamIcNS_11char_traitsIcEENS_9allocatorIcEEE3strB7v160006Ev
	.cfi_startproc
; %bb.0:
	sub	sp, sp, #32
	.cfi_def_cfa_offset 32
	stp	x29, x30, [sp, #16]             ; 16-byte Folded Spill
	add	x29, sp, #16
	.cfi_def_cfa w29, 16
	.cfi_offset w30, -8
	.cfi_offset w29, -16
	mov	x9, x8
	str	x9, [sp, #8]
	str	x0, [sp]
	ldr	x9, [sp]
	add	x0, x9, #24
	bl	__ZNKSt3__115basic_stringbufIcNS_11char_traitsIcEENS_9allocatorIcEEE3strEv
	ldp	x29, x30, [sp, #16]             ; 16-byte Folded Reload
	add	sp, sp, #32
	ret
	.cfi_endproc
                                        ; -- End function
	.globl	__ZNSt3__118basic_stringstreamIcNS_11char_traitsIcEENS_9allocatorIcEEED1Ev ; -- Begin function _ZNSt3__118basic_stringstreamIcNS_11char_traitsIcEENS_9allocatorIcEEED1Ev
	.weak_def_can_be_hidden	__ZNSt3__118basic_stringstreamIcNS_11char_traitsIcEENS_9allocatorIcEEED1Ev
	.p2align	2
__ZNSt3__118basic_stringstreamIcNS_11char_traitsIcEENS_9allocatorIcEEED1Ev: ; @_ZNSt3__118basic_stringstreamIcNS_11char_traitsIcEENS_9allocatorIcEEED1Ev
	.cfi_startproc
; %bb.0:
	sub	sp, sp, #32
	.cfi_def_cfa_offset 32
	stp	x29, x30, [sp, #16]             ; 16-byte Folded Spill
	add	x29, sp, #16
	.cfi_def_cfa w29, 16
	.cfi_offset w30, -8
	.cfi_offset w29, -16
	str	x0, [sp, #8]
	ldr	x0, [sp, #8]
	str	x0, [sp]                        ; 8-byte Folded Spill
	adrp	x1, __ZTTNSt3__118basic_stringstreamIcNS_11char_traitsIcEENS_9allocatorIcEEEE@GOTPAGE
	ldr	x1, [x1, __ZTTNSt3__118basic_stringstreamIcNS_11char_traitsIcEENS_9allocatorIcEEEE@GOTPAGEOFF]
	bl	__ZNSt3__118basic_stringstreamIcNS_11char_traitsIcEENS_9allocatorIcEEED2Ev
	ldr	x8, [sp]                        ; 8-byte Folded Reload
	add	x0, x8, #128
	bl	__ZNSt3__19basic_iosIcNS_11char_traitsIcEEED2Ev
	ldr	x0, [sp]                        ; 8-byte Folded Reload
	ldp	x29, x30, [sp, #16]             ; 16-byte Folded Reload
	add	sp, sp, #32
	ret
	.cfi_endproc
                                        ; -- End function
	.globl	_main                           ; -- Begin function main
	.p2align	2
_main:                                  ; @main
Lfunc_begin3:
	.cfi_startproc
	.cfi_personality 155, ___gxx_personality_v0
	.cfi_lsda 16, Lexception3
; %bb.0:
	sub	sp, sp, #272
	.cfi_def_cfa_offset 272
	stp	x28, x27, [sp, #240]            ; 16-byte Folded Spill
	stp	x29, x30, [sp, #256]            ; 16-byte Folded Spill
	add	x29, sp, #256
	.cfi_def_cfa w29, 16
	.cfi_offset w30, -8
	.cfi_offset w29, -16
	.cfi_offset w27, -24
	.cfi_offset w28, -32
	adrp	x8, ___stack_chk_guard@GOTPAGE
	ldr	x8, [x8, ___stack_chk_guard@GOTPAGEOFF]
	ldr	x8, [x8]
	stur	x8, [x29, #-24]
	str	wzr, [sp, #36]
	add	x0, sp, #40
	mov	x1, #4
	bl	__ZN10ThreadPoolC1Em
Ltmp16:
	adrp	x0, __ZNSt3__14coutE@GOTPAGE
	ldr	x0, [x0, __ZNSt3__14coutE@GOTPAGEOFF]
	adrp	x1, l_.str@PAGE
	add	x1, x1, l_.str@PAGEOFF
	bl	__ZNSt3__1lsB7v160006INS_11char_traitsIcEEEERNS_13basic_ostreamIcT_EES6_PKc
Ltmp17:
	b	LBB6_1
LBB6_1:
Ltmp18:
	adrp	x0, __ZNSt3__14coutE@GOTPAGE
	ldr	x0, [x0, __ZNSt3__14coutE@GOTPAGEOFF]
	adrp	x1, l_.str.1@PAGE
	add	x1, x1, l_.str.1@PAGEOFF
	bl	__ZNSt3__1lsB7v160006INS_11char_traitsIcEEEERNS_13basic_ostreamIcT_EES6_PKc
Ltmp19:
	b	LBB6_2
LBB6_2:
	str	wzr, [sp, #16]
	b	LBB6_3
LBB6_3:                                 ; =>This Inner Loop Header: Depth=1
	ldr	w8, [sp, #16]
	subs	w8, w8, #8
	cset	w8, ge
	tbnz	w8, #0, LBB6_8
	b	LBB6_4
LBB6_4:                                 ;   in Loop: Header=BB6_3 Depth=1
	ldr	w8, [sp, #16]
	add	x1, sp, #12
	str	w8, [sp, #12]
Ltmp20:
	add	x0, sp, #40
	bl	__ZN10ThreadPool7enqueueIZ4mainE3$_0EEvOT_
Ltmp21:
	b	LBB6_5
LBB6_5:                                 ;   in Loop: Header=BB6_3 Depth=1
	b	LBB6_6
LBB6_6:                                 ;   in Loop: Header=BB6_3 Depth=1
	ldr	w8, [sp, #16]
	add	w8, w8, #1
	str	w8, [sp, #16]
	b	LBB6_3
LBB6_7:
Ltmp22:
	str	x0, [sp, #24]
	mov	x8, x1
	str	w8, [sp, #20]
	add	x0, sp, #40
	bl	__ZN10ThreadPoolD1Ev
	b	LBB6_11
LBB6_8:
	str	wzr, [sp, #36]
	add	x0, sp, #40
	bl	__ZN10ThreadPoolD1Ev
	ldr	w8, [sp, #36]
	str	w8, [sp, #8]                    ; 4-byte Folded Spill
	ldur	x9, [x29, #-24]
	adrp	x8, ___stack_chk_guard@GOTPAGE
	ldr	x8, [x8, ___stack_chk_guard@GOTPAGEOFF]
	ldr	x8, [x8]
	subs	x8, x8, x9
	cset	w8, eq
	tbnz	w8, #0, LBB6_10
	b	LBB6_9
LBB6_9:
	bl	___stack_chk_fail
LBB6_10:
	ldr	w0, [sp, #8]                    ; 4-byte Folded Reload
	ldp	x29, x30, [sp, #256]            ; 16-byte Folded Reload
	ldp	x28, x27, [sp, #240]            ; 16-byte Folded Reload
	add	sp, sp, #272
	ret
LBB6_11:
	ldr	x0, [sp, #24]
	bl	__Unwind_Resume
Lfunc_end3:
	.cfi_endproc
	.section	__TEXT,__gcc_except_tab
	.p2align	2, 0x0
GCC_except_table6:
Lexception3:
	.byte	255                             ; @LPStart Encoding = omit
	.byte	255                             ; @TType Encoding = omit
	.byte	1                               ; Call site Encoding = uleb128
	.uleb128 Lcst_end3-Lcst_begin3
Lcst_begin3:
	.uleb128 Lfunc_begin3-Lfunc_begin3      ; >> Call Site 1 <<
	.uleb128 Ltmp16-Lfunc_begin3            ;   Call between Lfunc_begin3 and Ltmp16
	.byte	0                               ;     has no landing pad
	.byte	0                               ;   On action: cleanup
	.uleb128 Ltmp16-Lfunc_begin3            ; >> Call Site 2 <<
	.uleb128 Ltmp21-Ltmp16                  ;   Call between Ltmp16 and Ltmp21
	.uleb128 Ltmp22-Lfunc_begin3            ;     jumps to Ltmp22
	.byte	0                               ;   On action: cleanup
	.uleb128 Ltmp21-Lfunc_begin3            ; >> Call Site 3 <<
	.uleb128 Lfunc_end3-Ltmp21              ;   Call between Ltmp21 and Lfunc_end3
	.byte	0                               ;     has no landing pad
	.byte	0                               ;   On action: cleanup
Lcst_end3:
	.p2align	2, 0x0
                                        ; -- End function
	.section	__TEXT,__text,regular,pure_instructions
	.globl	__ZN10ThreadPoolC1Em            ; -- Begin function _ZN10ThreadPoolC1Em
	.weak_def_can_be_hidden	__ZN10ThreadPoolC1Em
	.p2align	2
__ZN10ThreadPoolC1Em:                   ; @_ZN10ThreadPoolC1Em
	.cfi_startproc
; %bb.0:
	sub	sp, sp, #48
	.cfi_def_cfa_offset 48
	stp	x29, x30, [sp, #32]             ; 16-byte Folded Spill
	add	x29, sp, #32
	.cfi_def_cfa w29, 16
	.cfi_offset w30, -8
	.cfi_offset w29, -16
	stur	x0, [x29, #-8]
	str	x1, [sp, #16]
	ldur	x0, [x29, #-8]
	str	x0, [sp, #8]                    ; 8-byte Folded Spill
	ldr	x1, [sp, #16]
	bl	__ZN10ThreadPoolC2Em
	ldr	x0, [sp, #8]                    ; 8-byte Folded Reload
	ldp	x29, x30, [sp, #32]             ; 16-byte Folded Reload
	add	sp, sp, #48
	ret
	.cfi_endproc
                                        ; -- End function
	.private_extern	__ZNSt3__1lsB7v160006INS_11char_traitsIcEEEERNS_13basic_ostreamIcT_EES6_PKc ; -- Begin function _ZNSt3__1lsB7v160006INS_11char_traitsIcEEEERNS_13basic_ostreamIcT_EES6_PKc
	.globl	__ZNSt3__1lsB7v160006INS_11char_traitsIcEEEERNS_13basic_ostreamIcT_EES6_PKc
	.weak_definition	__ZNSt3__1lsB7v160006INS_11char_traitsIcEEEERNS_13basic_ostreamIcT_EES6_PKc
	.p2align	2
__ZNSt3__1lsB7v160006INS_11char_traitsIcEEEERNS_13basic_ostreamIcT_EES6_PKc: ; @_ZNSt3__1lsB7v160006INS_11char_traitsIcEEEERNS_13basic_ostreamIcT_EES6_PKc
	.cfi_startproc
; %bb.0:
	sub	sp, sp, #48
	.cfi_def_cfa_offset 48
	stp	x29, x30, [sp, #32]             ; 16-byte Folded Spill
	add	x29, sp, #32
	.cfi_def_cfa w29, 16
	.cfi_offset w30, -8
	.cfi_offset w29, -16
	stur	x0, [x29, #-8]
	str	x1, [sp, #16]
	ldur	x8, [x29, #-8]
	str	x8, [sp, #8]                    ; 8-byte Folded Spill
	ldr	x8, [sp, #16]
	str	x8, [sp]                        ; 8-byte Folded Spill
	ldr	x0, [sp, #16]
	bl	__ZNSt3__111char_traitsIcE6lengthEPKc
	ldr	x1, [sp]                        ; 8-byte Folded Reload
	mov	x2, x0
	ldr	x0, [sp, #8]                    ; 8-byte Folded Reload
	bl	__ZNSt3__124__put_character_sequenceB7v160006IcNS_11char_traitsIcEEEERNS_13basic_ostreamIT_T0_EES7_PKS4_m
	ldp	x29, x30, [sp, #32]             ; 16-byte Folded Reload
	add	sp, sp, #48
	ret
	.cfi_endproc
                                        ; -- End function
	.p2align	2                               ; -- Begin function _ZN10ThreadPool7enqueueIZ4mainE3$_0EEvOT_
__ZN10ThreadPool7enqueueIZ4mainE3$_0EEvOT_: ; @"_ZN10ThreadPool7enqueueIZ4mainE3$_0EEvOT_"
Lfunc_begin4:
	.cfi_startproc
	.cfi_personality 155, ___gxx_personality_v0
	.cfi_lsda 16, Lexception4
; %bb.0:
	sub	sp, sp, #80
	.cfi_def_cfa_offset 80
	stp	x29, x30, [sp, #64]             ; 16-byte Folded Spill
	add	x29, sp, #64
	.cfi_def_cfa w29, 16
	.cfi_offset w30, -8
	.cfi_offset w29, -16
	stur	x0, [x29, #-8]
	stur	x1, [x29, #-16]
	ldur	x8, [x29, #-8]
	str	x8, [sp, #8]                    ; 8-byte Folded Spill
	add	x0, sp, #32
	add	x1, x8, #72
	bl	__ZNSt3__111unique_lockINS_5mutexEEC1B7v160006ERS1_
	ldr	x8, [sp, #8]                    ; 8-byte Folded Reload
	ldur	x1, [x29, #-16]
Ltmp23:
	add	x0, x8, #24
	bl	__ZNSt3__15queueINS_8functionIFvvEEENS_5dequeIS3_NS_9allocatorIS3_EEEEE7emplaceB7v160006IJZ4mainE3$_0EEEDcDpOT_
Ltmp24:
	b	LBB9_1
LBB9_1:
Ltmp25:
	add	x0, sp, #32
	bl	__ZNSt3__111unique_lockINS_5mutexEE6unlockEv
Ltmp26:
	b	LBB9_2
LBB9_2:
	ldr	x8, [sp, #8]                    ; 8-byte Folded Reload
	add	x0, x8, #136
	bl	__ZNSt3__118condition_variable10notify_oneEv
	add	x0, sp, #32
	bl	__ZNSt3__111unique_lockINS_5mutexEED1B7v160006Ev
	ldp	x29, x30, [sp, #64]             ; 16-byte Folded Reload
	add	sp, sp, #80
	ret
LBB9_3:
Ltmp27:
	str	x0, [sp, #24]
	mov	x8, x1
	str	w8, [sp, #20]
	add	x0, sp, #32
	bl	__ZNSt3__111unique_lockINS_5mutexEED1B7v160006Ev
	b	LBB9_4
LBB9_4:
	ldr	x0, [sp, #24]
	bl	__Unwind_Resume
Lfunc_end4:
	.cfi_endproc
	.section	__TEXT,__gcc_except_tab
	.p2align	2, 0x0
GCC_except_table9:
Lexception4:
	.byte	255                             ; @LPStart Encoding = omit
	.byte	255                             ; @TType Encoding = omit
	.byte	1                               ; Call site Encoding = uleb128
	.uleb128 Lcst_end4-Lcst_begin4
Lcst_begin4:
	.uleb128 Lfunc_begin4-Lfunc_begin4      ; >> Call Site 1 <<
	.uleb128 Ltmp23-Lfunc_begin4            ;   Call between Lfunc_begin4 and Ltmp23
	.byte	0                               ;     has no landing pad
	.byte	0                               ;   On action: cleanup
	.uleb128 Ltmp23-Lfunc_begin4            ; >> Call Site 2 <<
	.uleb128 Ltmp26-Ltmp23                  ;   Call between Ltmp23 and Ltmp26
	.uleb128 Ltmp27-Lfunc_begin4            ;     jumps to Ltmp27
	.byte	0                               ;   On action: cleanup
	.uleb128 Ltmp26-Lfunc_begin4            ; >> Call Site 3 <<
	.uleb128 Lfunc_end4-Ltmp26              ;   Call between Ltmp26 and Lfunc_end4
	.byte	0                               ;     has no landing pad
	.byte	0                               ;   On action: cleanup
Lcst_end4:
	.p2align	2, 0x0
                                        ; -- End function
	.section	__TEXT,__text,regular,pure_instructions
	.globl	__ZN10ThreadPoolD1Ev            ; -- Begin function _ZN10ThreadPoolD1Ev
	.weak_def_can_be_hidden	__ZN10ThreadPoolD1Ev
	.p2align	2
__ZN10ThreadPoolD1Ev:                   ; @_ZN10ThreadPoolD1Ev
	.cfi_startproc
; %bb.0:
	sub	sp, sp, #32
	.cfi_def_cfa_offset 32
	stp	x29, x30, [sp, #16]             ; 16-byte Folded Spill
	add	x29, sp, #16
	.cfi_def_cfa w29, 16
	.cfi_offset w30, -8
	.cfi_offset w29, -16
	str	x0, [sp, #8]
	ldr	x0, [sp, #8]
	str	x0, [sp]                        ; 8-byte Folded Spill
	bl	__ZN10ThreadPoolD2Ev
	ldr	x0, [sp]                        ; 8-byte Folded Reload
	ldp	x29, x30, [sp, #16]             ; 16-byte Folded Reload
	add	sp, sp, #32
	ret
	.cfi_endproc
                                        ; -- End function
	.private_extern	__ZNSt3__130__libcpp_thread_get_current_idB7v160006Ev ; -- Begin function _ZNSt3__130__libcpp_thread_get_current_idB7v160006Ev
	.globl	__ZNSt3__130__libcpp_thread_get_current_idB7v160006Ev
	.weak_definition	__ZNSt3__130__libcpp_thread_get_current_idB7v160006Ev
	.p2align	2
__ZNSt3__130__libcpp_thread_get_current_idB7v160006Ev: ; @_ZNSt3__130__libcpp_thread_get_current_idB7v160006Ev
	.cfi_startproc
; %bb.0:
	sub	sp, sp, #32
	.cfi_def_cfa_offset 32
	stp	x29, x30, [sp, #16]             ; 16-byte Folded Spill
	add	x29, sp, #16
	.cfi_def_cfa w29, 16
	.cfi_offset w30, -8
	.cfi_offset w29, -16
	bl	_pthread_self
	mov	x8, x0
	add	x0, sp, #8
	str	x8, [sp, #8]
	bl	__ZNSt3__122__libcpp_thread_get_idB7v160006EPKP17_opaque_pthread_t
	ldp	x29, x30, [sp, #16]             ; 16-byte Folded Reload
	add	sp, sp, #32
	ret
	.cfi_endproc
                                        ; -- End function
	.private_extern	___clang_call_terminate ; -- Begin function __clang_call_terminate
	.globl	___clang_call_terminate
	.weak_definition	___clang_call_terminate
	.p2align	2
___clang_call_terminate:                ; @__clang_call_terminate
; %bb.0:
	stp	x29, x30, [sp, #-16]!           ; 16-byte Folded Spill
	bl	___cxa_begin_catch
	bl	__ZSt9terminatev
                                        ; -- End function
	.private_extern	__ZNSt3__111__thread_idC1B7v160006EP17_opaque_pthread_t ; -- Begin function _ZNSt3__111__thread_idC1B7v160006EP17_opaque_pthread_t
	.globl	__ZNSt3__111__thread_idC1B7v160006EP17_opaque_pthread_t
	.weak_def_can_be_hidden	__ZNSt3__111__thread_idC1B7v160006EP17_opaque_pthread_t
	.p2align	2
__ZNSt3__111__thread_idC1B7v160006EP17_opaque_pthread_t: ; @_ZNSt3__111__thread_idC1B7v160006EP17_opaque_pthread_t
	.cfi_startproc
; %bb.0:
	sub	sp, sp, #48
	.cfi_def_cfa_offset 48
	stp	x29, x30, [sp, #32]             ; 16-byte Folded Spill
	add	x29, sp, #32
	.cfi_def_cfa w29, 16
	.cfi_offset w30, -8
	.cfi_offset w29, -16
	stur	x0, [x29, #-8]
	str	x1, [sp, #16]
	ldur	x0, [x29, #-8]
	str	x0, [sp, #8]                    ; 8-byte Folded Spill
	ldr	x1, [sp, #16]
	bl	__ZNSt3__111__thread_idC2B7v160006EP17_opaque_pthread_t
	ldr	x0, [sp, #8]                    ; 8-byte Folded Reload
	ldp	x29, x30, [sp, #32]             ; 16-byte Folded Reload
	add	sp, sp, #48
	ret
	.cfi_endproc
                                        ; -- End function
	.private_extern	__ZNSt3__122__libcpp_thread_get_idB7v160006EPKP17_opaque_pthread_t ; -- Begin function _ZNSt3__122__libcpp_thread_get_idB7v160006EPKP17_opaque_pthread_t
	.globl	__ZNSt3__122__libcpp_thread_get_idB7v160006EPKP17_opaque_pthread_t
	.weak_definition	__ZNSt3__122__libcpp_thread_get_idB7v160006EPKP17_opaque_pthread_t
	.p2align	2
__ZNSt3__122__libcpp_thread_get_idB7v160006EPKP17_opaque_pthread_t: ; @_ZNSt3__122__libcpp_thread_get_idB7v160006EPKP17_opaque_pthread_t
	.cfi_startproc
; %bb.0:
	sub	sp, sp, #16
	.cfi_def_cfa_offset 16
	str	x0, [sp, #8]
	ldr	x8, [sp, #8]
	ldr	x0, [x8]
	add	sp, sp, #16
	ret
	.cfi_endproc
                                        ; -- End function
	.private_extern	__ZNSt3__111__thread_idC2B7v160006EP17_opaque_pthread_t ; -- Begin function _ZNSt3__111__thread_idC2B7v160006EP17_opaque_pthread_t
	.globl	__ZNSt3__111__thread_idC2B7v160006EP17_opaque_pthread_t
	.weak_def_can_be_hidden	__ZNSt3__111__thread_idC2B7v160006EP17_opaque_pthread_t
	.p2align	2
__ZNSt3__111__thread_idC2B7v160006EP17_opaque_pthread_t: ; @_ZNSt3__111__thread_idC2B7v160006EP17_opaque_pthread_t
	.cfi_startproc
; %bb.0:
	sub	sp, sp, #16
	.cfi_def_cfa_offset 16
	str	x0, [sp, #8]
	str	x1, [sp]
	ldr	x0, [sp, #8]
	ldr	x8, [sp]
	str	x8, [x0]
	add	sp, sp, #16
	ret
	.cfi_endproc
                                        ; -- End function
	.globl	__ZNSt3__118basic_stringstreamIcNS_11char_traitsIcEENS_9allocatorIcEEED2Ev ; -- Begin function _ZNSt3__118basic_stringstreamIcNS_11char_traitsIcEENS_9allocatorIcEEED2Ev
	.weak_def_can_be_hidden	__ZNSt3__118basic_stringstreamIcNS_11char_traitsIcEENS_9allocatorIcEEED2Ev
	.p2align	2
__ZNSt3__118basic_stringstreamIcNS_11char_traitsIcEENS_9allocatorIcEEED2Ev: ; @_ZNSt3__118basic_stringstreamIcNS_11char_traitsIcEENS_9allocatorIcEEED2Ev
	.cfi_startproc
; %bb.0:
	sub	sp, sp, #48
	.cfi_def_cfa_offset 48
	stp	x29, x30, [sp, #32]             ; 16-byte Folded Spill
	add	x29, sp, #32
	.cfi_def_cfa w29, 16
	.cfi_offset w30, -8
	.cfi_offset w29, -16
	stur	x0, [x29, #-8]
	str	x1, [sp, #16]
	ldur	x8, [x29, #-8]
	str	x8, [sp, #8]                    ; 8-byte Folded Spill
	ldr	x9, [sp, #16]
	str	x9, [sp]                        ; 8-byte Folded Spill
	ldr	x10, [x9]
	str	x10, [x8]
	ldr	x10, [x9, #64]
	ldr	x11, [x8]
	ldur	x11, [x11, #-24]
	str	x10, [x8, x11]
	ldr	x9, [x9, #72]
	str	x9, [x8, #16]
	add	x0, x8, #24
	bl	__ZNSt3__115basic_stringbufIcNS_11char_traitsIcEENS_9allocatorIcEEED1Ev
	ldr	x0, [sp, #8]                    ; 8-byte Folded Reload
	ldr	x8, [sp]                        ; 8-byte Folded Reload
	add	x1, x8, #8
	bl	__ZNSt3__114basic_iostreamIcNS_11char_traitsIcEEED2Ev
	ldr	x0, [sp, #8]                    ; 8-byte Folded Reload
	ldp	x29, x30, [sp, #32]             ; 16-byte Folded Reload
	add	sp, sp, #48
	ret
	.cfi_endproc
                                        ; -- End function
	.globl	__ZThn16_NSt3__118basic_stringstreamIcNS_11char_traitsIcEENS_9allocatorIcEEED1Ev ; -- Begin function _ZThn16_NSt3__118basic_stringstreamIcNS_11char_traitsIcEENS_9allocatorIcEEED1Ev
	.weak_def_can_be_hidden	__ZThn16_NSt3__118basic_stringstreamIcNS_11char_traitsIcEENS_9allocatorIcEEED1Ev
	.p2align	2
__ZThn16_NSt3__118basic_stringstreamIcNS_11char_traitsIcEENS_9allocatorIcEEED1Ev: ; @_ZThn16_NSt3__118basic_stringstreamIcNS_11char_traitsIcEENS_9allocatorIcEEED1Ev
	.cfi_startproc
; %bb.0:
	sub	sp, sp, #16
	.cfi_def_cfa_offset 16
	str	x0, [sp]
	ldr	x8, [sp]
	str	x8, [sp, #8]
	subs	x0, x8, #16
	add	sp, sp, #16
	b	__ZNSt3__118basic_stringstreamIcNS_11char_traitsIcEENS_9allocatorIcEEED1Ev
	.cfi_endproc
                                        ; -- End function
	.globl	__ZTv0_n24_NSt3__118basic_stringstreamIcNS_11char_traitsIcEENS_9allocatorIcEEED1Ev ; -- Begin function _ZTv0_n24_NSt3__118basic_stringstreamIcNS_11char_traitsIcEENS_9allocatorIcEEED1Ev
	.weak_def_can_be_hidden	__ZTv0_n24_NSt3__118basic_stringstreamIcNS_11char_traitsIcEENS_9allocatorIcEEED1Ev
	.p2align	2
__ZTv0_n24_NSt3__118basic_stringstreamIcNS_11char_traitsIcEENS_9allocatorIcEEED1Ev: ; @_ZTv0_n24_NSt3__118basic_stringstreamIcNS_11char_traitsIcEENS_9allocatorIcEEED1Ev
	.cfi_startproc
; %bb.0:
	sub	sp, sp, #16
	.cfi_def_cfa_offset 16
	str	x0, [sp]
	ldr	x8, [sp]
	mov	x9, x8
	str	x9, [sp, #8]
	ldr	x9, [x8]
	ldur	x9, [x9, #-24]
	add	x0, x8, x9
	add	sp, sp, #16
	b	__ZNSt3__118basic_stringstreamIcNS_11char_traitsIcEENS_9allocatorIcEEED1Ev
	.cfi_endproc
                                        ; -- End function
	.globl	__ZNSt3__115basic_stringbufIcNS_11char_traitsIcEENS_9allocatorIcEEED1Ev ; -- Begin function _ZNSt3__115basic_stringbufIcNS_11char_traitsIcEENS_9allocatorIcEEED1Ev
	.weak_def_can_be_hidden	__ZNSt3__115basic_stringbufIcNS_11char_traitsIcEENS_9allocatorIcEEED1Ev
	.p2align	2
__ZNSt3__115basic_stringbufIcNS_11char_traitsIcEENS_9allocatorIcEEED1Ev: ; @_ZNSt3__115basic_stringbufIcNS_11char_traitsIcEENS_9allocatorIcEEED1Ev
	.cfi_startproc
; %bb.0:
	sub	sp, sp, #32
	.cfi_def_cfa_offset 32
	stp	x29, x30, [sp, #16]             ; 16-byte Folded Spill
	add	x29, sp, #16
	.cfi_def_cfa w29, 16
	.cfi_offset w30, -8
	.cfi_offset w29, -16
	str	x0, [sp, #8]
	ldr	x0, [sp, #8]
	str	x0, [sp]                        ; 8-byte Folded Spill
	bl	__ZNSt3__115basic_stringbufIcNS_11char_traitsIcEENS_9allocatorIcEEED2Ev
	ldr	x0, [sp]                        ; 8-byte Folded Reload
	ldp	x29, x30, [sp, #16]             ; 16-byte Folded Reload
	add	sp, sp, #32
	ret
	.cfi_endproc
                                        ; -- End function
	.globl	__ZNSt3__115basic_stringbufIcNS_11char_traitsIcEENS_9allocatorIcEEED2Ev ; -- Begin function _ZNSt3__115basic_stringbufIcNS_11char_traitsIcEENS_9allocatorIcEEED2Ev
	.weak_def_can_be_hidden	__ZNSt3__115basic_stringbufIcNS_11char_traitsIcEENS_9allocatorIcEEED2Ev
	.p2align	2
__ZNSt3__115basic_stringbufIcNS_11char_traitsIcEENS_9allocatorIcEEED2Ev: ; @_ZNSt3__115basic_stringbufIcNS_11char_traitsIcEENS_9allocatorIcEEED2Ev
	.cfi_startproc
; %bb.0:
	sub	sp, sp, #32
	.cfi_def_cfa_offset 32
	stp	x29, x30, [sp, #16]             ; 16-byte Folded Spill
	add	x29, sp, #16
	.cfi_def_cfa w29, 16
	.cfi_offset w30, -8
	.cfi_offset w29, -16
	adrp	x8, __ZTVNSt3__115basic_stringbufIcNS_11char_traitsIcEENS_9allocatorIcEEEE@GOTPAGE
	ldr	x8, [x8, __ZTVNSt3__115basic_stringbufIcNS_11char_traitsIcEENS_9allocatorIcEEEE@GOTPAGEOFF]
	add	x9, x8, #16
	str	x0, [sp, #8]
	ldr	x8, [sp, #8]
	str	x8, [sp]                        ; 8-byte Folded Spill
	str	x9, [x8]
	add	x0, x8, #64
	bl	__ZNSt3__112basic_stringIcNS_11char_traitsIcEENS_9allocatorIcEEED1Ev
	ldr	x0, [sp]                        ; 8-byte Folded Reload
	bl	__ZNSt3__115basic_streambufIcNS_11char_traitsIcEEED2Ev
	ldr	x0, [sp]                        ; 8-byte Folded Reload
	ldp	x29, x30, [sp, #16]             ; 16-byte Folded Reload
	add	sp, sp, #32
	ret
	.cfi_endproc
                                        ; -- End function
	.globl	__ZN10ThreadPoolC2Em            ; -- Begin function _ZN10ThreadPoolC2Em
	.weak_def_can_be_hidden	__ZN10ThreadPoolC2Em
	.p2align	2
__ZN10ThreadPoolC2Em:                   ; @_ZN10ThreadPoolC2Em
Lfunc_begin5:
	.cfi_startproc
	.cfi_personality 155, ___gxx_personality_v0
	.cfi_lsda 16, Lexception5
; %bb.0:
	sub	sp, sp, #112
	.cfi_def_cfa_offset 112
	stp	x29, x30, [sp, #96]             ; 16-byte Folded Spill
	add	x29, sp, #96
	.cfi_def_cfa w29, 16
	.cfi_offset w30, -8
	.cfi_offset w29, -16
	stur	x0, [x29, #-16]
	stur	x1, [x29, #-24]
	ldur	x0, [x29, #-16]
	str	x0, [sp, #32]                   ; 8-byte Folded Spill
	mov	x8, x0
	stur	x8, [x29, #-8]
	bl	__ZNSt3__16vectorINS_6threadENS_9allocatorIS1_EEEC1B7v160006Ev
	ldr	x8, [sp, #32]                   ; 8-byte Folded Reload
	add	x0, x8, #24
	str	x0, [sp, #8]                    ; 8-byte Folded Spill
	bl	__ZNSt3__15queueINS_8functionIFvvEEENS_5dequeIS3_NS_9allocatorIS3_EEEEEC1B7v160006Ev
	ldr	x8, [sp, #32]                   ; 8-byte Folded Reload
	add	x0, x8, #72
	str	x0, [sp, #16]                   ; 8-byte Folded Spill
	bl	__ZNSt3__15mutexC1B7v160006Ev
	ldr	x8, [sp, #32]                   ; 8-byte Folded Reload
	add	x0, x8, #136
	str	x0, [sp, #24]                   ; 8-byte Folded Spill
	bl	__ZNSt3__118condition_variableC1B7v160006Ev
	ldr	x8, [sp, #32]                   ; 8-byte Folded Reload
	strb	wzr, [x8, #184]
	stur	xzr, [x29, #-32]
	b	LBB21_1
LBB21_1:                                ; =>This Inner Loop Header: Depth=1
	ldur	x8, [x29, #-32]
	ldur	x9, [x29, #-24]
	subs	x8, x8, x9
	cset	w8, hs
	tbnz	w8, #0, LBB21_6
	b	LBB21_2
LBB21_2:                                ;   in Loop: Header=BB21_1 Depth=1
	ldr	x0, [sp, #32]                   ; 8-byte Folded Reload
	sub	x1, x29, #40
	mov	x8, x0
	stur	x8, [x29, #-40]
Ltmp32:
	bl	__ZNSt3__16vectorINS_6threadENS_9allocatorIS1_EEE12emplace_backIJZN10ThreadPoolC1EmEUlvE_EEERS1_DpOT_
Ltmp33:
	b	LBB21_3
LBB21_3:                                ;   in Loop: Header=BB21_1 Depth=1
	b	LBB21_4
LBB21_4:                                ;   in Loop: Header=BB21_1 Depth=1
	ldur	x8, [x29, #-32]
	add	x8, x8, #1
	stur	x8, [x29, #-32]
	b	LBB21_1
LBB21_5:
Ltmp34:
	mov	x8, x0
	ldr	x0, [sp, #24]                   ; 8-byte Folded Reload
	str	x8, [sp, #48]
	mov	x8, x1
	str	w8, [sp, #44]
	bl	__ZNSt3__118condition_variableD1Ev
	ldr	x0, [sp, #16]                   ; 8-byte Folded Reload
	bl	__ZNSt3__15mutexD1Ev
	ldr	x0, [sp, #8]                    ; 8-byte Folded Reload
	bl	__ZNSt3__15queueINS_8functionIFvvEEENS_5dequeIS3_NS_9allocatorIS3_EEEEED1Ev
	ldr	x0, [sp, #32]                   ; 8-byte Folded Reload
	bl	__ZNSt3__16vectorINS_6threadENS_9allocatorIS1_EEED1B7v160006Ev
	b	LBB21_7
LBB21_6:
	ldur	x0, [x29, #-8]
	ldp	x29, x30, [sp, #96]             ; 16-byte Folded Reload
	add	sp, sp, #112
	ret
LBB21_7:
	ldr	x0, [sp, #48]
	bl	__Unwind_Resume
Lfunc_end5:
	.cfi_endproc
	.section	__TEXT,__gcc_except_tab
	.p2align	2, 0x0
GCC_except_table21:
Lexception5:
	.byte	255                             ; @LPStart Encoding = omit
	.byte	255                             ; @TType Encoding = omit
	.byte	1                               ; Call site Encoding = uleb128
	.uleb128 Lcst_end5-Lcst_begin5
Lcst_begin5:
	.uleb128 Ltmp32-Lfunc_begin5            ; >> Call Site 1 <<
	.uleb128 Ltmp33-Ltmp32                  ;   Call between Ltmp32 and Ltmp33
	.uleb128 Ltmp34-Lfunc_begin5            ;     jumps to Ltmp34
	.byte	0                               ;   On action: cleanup
	.uleb128 Ltmp33-Lfunc_begin5            ; >> Call Site 2 <<
	.uleb128 Lfunc_end5-Ltmp33              ;   Call between Ltmp33 and Lfunc_end5
	.byte	0                               ;     has no landing pad
	.byte	0                               ;   On action: cleanup
Lcst_end5:
	.p2align	2, 0x0
                                        ; -- End function
	.section	__TEXT,__text,regular,pure_instructions
	.private_extern	__ZNSt3__16vectorINS_6threadENS_9allocatorIS1_EEEC1B7v160006Ev ; -- Begin function _ZNSt3__16vectorINS_6threadENS_9allocatorIS1_EEEC1B7v160006Ev
	.globl	__ZNSt3__16vectorINS_6threadENS_9allocatorIS1_EEEC1B7v160006Ev
	.weak_def_can_be_hidden	__ZNSt3__16vectorINS_6threadENS_9allocatorIS1_EEEC1B7v160006Ev
	.p2align	2
__ZNSt3__16vectorINS_6threadENS_9allocatorIS1_EEEC1B7v160006Ev: ; @_ZNSt3__16vectorINS_6threadENS_9allocatorIS1_EEEC1B7v160006Ev
	.cfi_startproc
; %bb.0:
	sub	sp, sp, #32
	.cfi_def_cfa_offset 32
	stp	x29, x30, [sp, #16]             ; 16-byte Folded Spill
	add	x29, sp, #16
	.cfi_def_cfa w29, 16
	.cfi_offset w30, -8
	.cfi_offset w29, -16
	str	x0, [sp, #8]
	ldr	x0, [sp, #8]
	str	x0, [sp]                        ; 8-byte Folded Spill
	bl	__ZNSt3__16vectorINS_6threadENS_9allocatorIS1_EEEC2B7v160006Ev
	ldr	x0, [sp]                        ; 8-byte Folded Reload
	ldp	x29, x30, [sp, #16]             ; 16-byte Folded Reload
	add	sp, sp, #32
	ret
	.cfi_endproc
                                        ; -- End function
	.private_extern	__ZNSt3__15queueINS_8functionIFvvEEENS_5dequeIS3_NS_9allocatorIS3_EEEEEC1B7v160006Ev ; -- Begin function _ZNSt3__15queueINS_8functionIFvvEEENS_5dequeIS3_NS_9allocatorIS3_EEEEEC1B7v160006Ev
	.globl	__ZNSt3__15queueINS_8functionIFvvEEENS_5dequeIS3_NS_9allocatorIS3_EEEEEC1B7v160006Ev
	.weak_def_can_be_hidden	__ZNSt3__15queueINS_8functionIFvvEEENS_5dequeIS3_NS_9allocatorIS3_EEEEEC1B7v160006Ev
	.p2align	2
__ZNSt3__15queueINS_8functionIFvvEEENS_5dequeIS3_NS_9allocatorIS3_EEEEEC1B7v160006Ev: ; @_ZNSt3__15queueINS_8functionIFvvEEENS_5dequeIS3_NS_9allocatorIS3_EEEEEC1B7v160006Ev
	.cfi_startproc
; %bb.0:
	sub	sp, sp, #32
	.cfi_def_cfa_offset 32
	stp	x29, x30, [sp, #16]             ; 16-byte Folded Spill
	add	x29, sp, #16
	.cfi_def_cfa w29, 16
	.cfi_offset w30, -8
	.cfi_offset w29, -16
	str	x0, [sp, #8]
	ldr	x0, [sp, #8]
	str	x0, [sp]                        ; 8-byte Folded Spill
	bl	__ZNSt3__15queueINS_8functionIFvvEEENS_5dequeIS3_NS_9allocatorIS3_EEEEEC2B7v160006Ev
	ldr	x0, [sp]                        ; 8-byte Folded Reload
	ldp	x29, x30, [sp, #16]             ; 16-byte Folded Reload
	add	sp, sp, #32
	ret
	.cfi_endproc
                                        ; -- End function
	.private_extern	__ZNSt3__15mutexC1B7v160006Ev ; -- Begin function _ZNSt3__15mutexC1B7v160006Ev
	.globl	__ZNSt3__15mutexC1B7v160006Ev
	.weak_def_can_be_hidden	__ZNSt3__15mutexC1B7v160006Ev
	.p2align	2
__ZNSt3__15mutexC1B7v160006Ev:          ; @_ZNSt3__15mutexC1B7v160006Ev
	.cfi_startproc
; %bb.0:
	sub	sp, sp, #32
	.cfi_def_cfa_offset 32
	stp	x29, x30, [sp, #16]             ; 16-byte Folded Spill
	add	x29, sp, #16
	.cfi_def_cfa w29, 16
	.cfi_offset w30, -8
	.cfi_offset w29, -16
	str	x0, [sp, #8]
	ldr	x0, [sp, #8]
	str	x0, [sp]                        ; 8-byte Folded Spill
	bl	__ZNSt3__15mutexC2B7v160006Ev
	ldr	x0, [sp]                        ; 8-byte Folded Reload
	ldp	x29, x30, [sp, #16]             ; 16-byte Folded Reload
	add	sp, sp, #32
	ret
	.cfi_endproc
                                        ; -- End function
	.private_extern	__ZNSt3__118condition_variableC1B7v160006Ev ; -- Begin function _ZNSt3__118condition_variableC1B7v160006Ev
	.globl	__ZNSt3__118condition_variableC1B7v160006Ev
	.weak_def_can_be_hidden	__ZNSt3__118condition_variableC1B7v160006Ev
	.p2align	2
__ZNSt3__118condition_variableC1B7v160006Ev: ; @_ZNSt3__118condition_variableC1B7v160006Ev
	.cfi_startproc
; %bb.0:
	sub	sp, sp, #32
	.cfi_def_cfa_offset 32
	stp	x29, x30, [sp, #16]             ; 16-byte Folded Spill
	add	x29, sp, #16
	.cfi_def_cfa w29, 16
	.cfi_offset w30, -8
	.cfi_offset w29, -16
	str	x0, [sp, #8]
	ldr	x0, [sp, #8]
	str	x0, [sp]                        ; 8-byte Folded Spill
	bl	__ZNSt3__118condition_variableC2B7v160006Ev
	ldr	x0, [sp]                        ; 8-byte Folded Reload
	ldp	x29, x30, [sp, #16]             ; 16-byte Folded Reload
	add	sp, sp, #32
	ret
	.cfi_endproc
                                        ; -- End function
	.globl	__ZNSt3__16vectorINS_6threadENS_9allocatorIS1_EEE12emplace_backIJZN10ThreadPoolC1EmEUlvE_EEERS1_DpOT_ ; -- Begin function _ZNSt3__16vectorINS_6threadENS_9allocatorIS1_EEE12emplace_backIJZN10ThreadPoolC1EmEUlvE_EEERS1_DpOT_
	.weak_definition	__ZNSt3__16vectorINS_6threadENS_9allocatorIS1_EEE12emplace_backIJZN10ThreadPoolC1EmEUlvE_EEERS1_DpOT_
	.p2align	2
__ZNSt3__16vectorINS_6threadENS_9allocatorIS1_EEE12emplace_backIJZN10ThreadPoolC1EmEUlvE_EEERS1_DpOT_: ; @_ZNSt3__16vectorINS_6threadENS_9allocatorIS1_EEE12emplace_backIJZN10ThreadPoolC1EmEUlvE_EEERS1_DpOT_
	.cfi_startproc
; %bb.0:
	sub	sp, sp, #48
	.cfi_def_cfa_offset 48
	stp	x29, x30, [sp, #32]             ; 16-byte Folded Spill
	add	x29, sp, #32
	.cfi_def_cfa w29, 16
	.cfi_offset w30, -8
	.cfi_offset w29, -16
	stur	x0, [x29, #-8]
	str	x1, [sp, #16]
	ldur	x0, [x29, #-8]
	str	x0, [sp]                        ; 8-byte Folded Spill
	ldr	x8, [x0, #8]
	str	x8, [sp, #8]                    ; 8-byte Folded Spill
	bl	__ZNSt3__16vectorINS_6threadENS_9allocatorIS1_EEE9__end_capB7v160006Ev
	ldr	x8, [sp, #8]                    ; 8-byte Folded Reload
	ldr	x9, [x0]
	subs	x8, x8, x9
	cset	w8, hs
	tbnz	w8, #0, LBB26_2
	b	LBB26_1
LBB26_1:
	ldr	x0, [sp]                        ; 8-byte Folded Reload
	ldr	x1, [sp, #16]
	bl	__ZNSt3__16vectorINS_6threadENS_9allocatorIS1_EEE22__construct_one_at_endB7v160006IJZN10ThreadPoolC1EmEUlvE_EEEvDpOT_
	b	LBB26_3
LBB26_2:
	ldr	x0, [sp]                        ; 8-byte Folded Reload
	ldr	x1, [sp, #16]
	bl	__ZNSt3__16vectorINS_6threadENS_9allocatorIS1_EEE24__emplace_back_slow_pathIJZN10ThreadPoolC1EmEUlvE_EEEvDpOT_
	b	LBB26_3
LBB26_3:
	ldr	x0, [sp]                        ; 8-byte Folded Reload
	bl	__ZNSt3__16vectorINS_6threadENS_9allocatorIS1_EEE4backB7v160006Ev
	ldp	x29, x30, [sp, #32]             ; 16-byte Folded Reload
	add	sp, sp, #48
	ret
	.cfi_endproc
                                        ; -- End function
	.globl	__ZNSt3__15queueINS_8functionIFvvEEENS_5dequeIS3_NS_9allocatorIS3_EEEEED1Ev ; -- Begin function _ZNSt3__15queueINS_8functionIFvvEEENS_5dequeIS3_NS_9allocatorIS3_EEEEED1Ev
	.weak_def_can_be_hidden	__ZNSt3__15queueINS_8functionIFvvEEENS_5dequeIS3_NS_9allocatorIS3_EEEEED1Ev
	.p2align	2
__ZNSt3__15queueINS_8functionIFvvEEENS_5dequeIS3_NS_9allocatorIS3_EEEEED1Ev: ; @_ZNSt3__15queueINS_8functionIFvvEEENS_5dequeIS3_NS_9allocatorIS3_EEEEED1Ev
	.cfi_startproc
; %bb.0:
	sub	sp, sp, #32
	.cfi_def_cfa_offset 32
	stp	x29, x30, [sp, #16]             ; 16-byte Folded Spill
	add	x29, sp, #16
	.cfi_def_cfa w29, 16
	.cfi_offset w30, -8
	.cfi_offset w29, -16
	str	x0, [sp, #8]
	ldr	x0, [sp, #8]
	str	x0, [sp]                        ; 8-byte Folded Spill
	bl	__ZNSt3__15queueINS_8functionIFvvEEENS_5dequeIS3_NS_9allocatorIS3_EEEEED2Ev
	ldr	x0, [sp]                        ; 8-byte Folded Reload
	ldp	x29, x30, [sp, #16]             ; 16-byte Folded Reload
	add	sp, sp, #32
	ret
	.cfi_endproc
                                        ; -- End function
	.private_extern	__ZNSt3__16vectorINS_6threadENS_9allocatorIS1_EEED1B7v160006Ev ; -- Begin function _ZNSt3__16vectorINS_6threadENS_9allocatorIS1_EEED1B7v160006Ev
	.globl	__ZNSt3__16vectorINS_6threadENS_9allocatorIS1_EEED1B7v160006Ev
	.weak_def_can_be_hidden	__ZNSt3__16vectorINS_6threadENS_9allocatorIS1_EEED1B7v160006Ev
	.p2align	2
__ZNSt3__16vectorINS_6threadENS_9allocatorIS1_EEED1B7v160006Ev: ; @_ZNSt3__16vectorINS_6threadENS_9allocatorIS1_EEED1B7v160006Ev
	.cfi_startproc
; %bb.0:
	sub	sp, sp, #32
	.cfi_def_cfa_offset 32
	stp	x29, x30, [sp, #16]             ; 16-byte Folded Spill
	add	x29, sp, #16
	.cfi_def_cfa w29, 16
	.cfi_offset w30, -8
	.cfi_offset w29, -16
	str	x0, [sp, #8]
	ldr	x0, [sp, #8]
	str	x0, [sp]                        ; 8-byte Folded Spill
	bl	__ZNSt3__16vectorINS_6threadENS_9allocatorIS1_EEED2B7v160006Ev
	ldr	x0, [sp]                        ; 8-byte Folded Reload
	ldp	x29, x30, [sp, #16]             ; 16-byte Folded Reload
	add	sp, sp, #32
	ret
	.cfi_endproc
                                        ; -- End function
	.private_extern	__ZNSt3__16vectorINS_6threadENS_9allocatorIS1_EEEC2B7v160006Ev ; -- Begin function _ZNSt3__16vectorINS_6threadENS_9allocatorIS1_EEEC2B7v160006Ev
	.globl	__ZNSt3__16vectorINS_6threadENS_9allocatorIS1_EEEC2B7v160006Ev
	.weak_def_can_be_hidden	__ZNSt3__16vectorINS_6threadENS_9allocatorIS1_EEEC2B7v160006Ev
	.p2align	2
__ZNSt3__16vectorINS_6threadENS_9allocatorIS1_EEEC2B7v160006Ev: ; @_ZNSt3__16vectorINS_6threadENS_9allocatorIS1_EEEC2B7v160006Ev
Lfunc_begin6:
	.cfi_startproc
	.cfi_personality 155, ___gxx_personality_v0
	.cfi_lsda 16, Lexception6
; %bb.0:
	sub	sp, sp, #48
	.cfi_def_cfa_offset 48
	stp	x29, x30, [sp, #32]             ; 16-byte Folded Spill
	add	x29, sp, #32
	.cfi_def_cfa w29, 16
	.cfi_offset w30, -8
	.cfi_offset w29, -16
	stur	x0, [x29, #-8]
	ldur	x8, [x29, #-8]
	str	x8, [sp]                        ; 8-byte Folded Spill
                                        ; kill: def $x9 killed $xzr
	str	xzr, [x8]
	str	xzr, [x8, #8]
	add	x1, sp, #16
	str	xzr, [sp, #16]
Ltmp35:
	add	x0, x8, #16
	add	x2, sp, #15
	bl	__ZNSt3__117__compressed_pairIPNS_6threadENS_9allocatorIS1_EEEC1B7v160006IDnNS_18__default_init_tagEEEOT_OT0_
Ltmp36:
	b	LBB29_1
LBB29_1:
Ltmp37:
	ldr	x0, [sp]                        ; 8-byte Folded Reload
	bl	__ZNSt3__119__debug_db_insert_cB7v160006INS_6vectorINS_6threadENS_9allocatorIS2_EEEEEEvPT_
Ltmp38:
	b	LBB29_2
LBB29_2:
	ldr	x0, [sp]                        ; 8-byte Folded Reload
	ldp	x29, x30, [sp, #32]             ; 16-byte Folded Reload
	add	sp, sp, #48
	ret
LBB29_3:
Ltmp39:
	bl	___clang_call_terminate
Lfunc_end6:
	.cfi_endproc
	.section	__TEXT,__gcc_except_tab
	.p2align	2, 0x0
GCC_except_table29:
Lexception6:
	.byte	255                             ; @LPStart Encoding = omit
	.byte	155                             ; @TType Encoding = indirect pcrel sdata4
	.uleb128 Lttbase1-Lttbaseref1
Lttbaseref1:
	.byte	1                               ; Call site Encoding = uleb128
	.uleb128 Lcst_end6-Lcst_begin6
Lcst_begin6:
	.uleb128 Ltmp35-Lfunc_begin6            ; >> Call Site 1 <<
	.uleb128 Ltmp38-Ltmp35                  ;   Call between Ltmp35 and Ltmp38
	.uleb128 Ltmp39-Lfunc_begin6            ;     jumps to Ltmp39
	.byte	1                               ;   On action: 1
Lcst_end6:
	.byte	1                               ; >> Action Record 1 <<
                                        ;   Catch TypeInfo 1
	.byte	0                               ;   No further actions
	.p2align	2, 0x0
                                        ; >> Catch TypeInfos <<
	.long	0                               ; TypeInfo 1
Lttbase1:
	.p2align	2, 0x0
                                        ; -- End function
	.section	__TEXT,__text,regular,pure_instructions
	.globl	__ZNSt3__117__compressed_pairIPNS_6threadENS_9allocatorIS1_EEEC1B7v160006IDnNS_18__default_init_tagEEEOT_OT0_ ; -- Begin function _ZNSt3__117__compressed_pairIPNS_6threadENS_9allocatorIS1_EEEC1B7v160006IDnNS_18__default_init_tagEEEOT_OT0_
	.weak_def_can_be_hidden	__ZNSt3__117__compressed_pairIPNS_6threadENS_9allocatorIS1_EEEC1B7v160006IDnNS_18__default_init_tagEEEOT_OT0_
	.p2align	2
__ZNSt3__117__compressed_pairIPNS_6threadENS_9allocatorIS1_EEEC1B7v160006IDnNS_18__default_init_tagEEEOT_OT0_: ; @_ZNSt3__117__compressed_pairIPNS_6threadENS_9allocatorIS1_EEEC1B7v160006IDnNS_18__default_init_tagEEEOT_OT0_
	.cfi_startproc
; %bb.0:
	sub	sp, sp, #48
	.cfi_def_cfa_offset 48
	stp	x29, x30, [sp, #32]             ; 16-byte Folded Spill
	add	x29, sp, #32
	.cfi_def_cfa w29, 16
	.cfi_offset w30, -8
	.cfi_offset w29, -16
	stur	x0, [x29, #-8]
	str	x1, [sp, #16]
	str	x2, [sp, #8]
	ldur	x0, [x29, #-8]
	str	x0, [sp]                        ; 8-byte Folded Spill
	ldr	x1, [sp, #16]
	ldr	x2, [sp, #8]
	bl	__ZNSt3__117__compressed_pairIPNS_6threadENS_9allocatorIS1_EEEC2B7v160006IDnNS_18__default_init_tagEEEOT_OT0_
	ldr	x0, [sp]                        ; 8-byte Folded Reload
	ldp	x29, x30, [sp, #32]             ; 16-byte Folded Reload
	add	sp, sp, #48
	ret
	.cfi_endproc
                                        ; -- End function
	.private_extern	__ZNSt3__119__debug_db_insert_cB7v160006INS_6vectorINS_6threadENS_9allocatorIS2_EEEEEEvPT_ ; -- Begin function _ZNSt3__119__debug_db_insert_cB7v160006INS_6vectorINS_6threadENS_9allocatorIS2_EEEEEEvPT_
	.globl	__ZNSt3__119__debug_db_insert_cB7v160006INS_6vectorINS_6threadENS_9allocatorIS2_EEEEEEvPT_
	.weak_definition	__ZNSt3__119__debug_db_insert_cB7v160006INS_6vectorINS_6threadENS_9allocatorIS2_EEEEEEvPT_
	.p2align	2
__ZNSt3__119__debug_db_insert_cB7v160006INS_6vectorINS_6threadENS_9allocatorIS2_EEEEEEvPT_: ; @_ZNSt3__119__debug_db_insert_cB7v160006INS_6vectorINS_6threadENS_9allocatorIS2_EEEEEEvPT_
	.cfi_startproc
; %bb.0:
	sub	sp, sp, #16
	.cfi_def_cfa_offset 16
	str	x0, [sp, #8]
	add	sp, sp, #16
	ret
	.cfi_endproc
                                        ; -- End function
	.globl	__ZNSt3__117__compressed_pairIPNS_6threadENS_9allocatorIS1_EEEC2B7v160006IDnNS_18__default_init_tagEEEOT_OT0_ ; -- Begin function _ZNSt3__117__compressed_pairIPNS_6threadENS_9allocatorIS1_EEEC2B7v160006IDnNS_18__default_init_tagEEEOT_OT0_
	.weak_def_can_be_hidden	__ZNSt3__117__compressed_pairIPNS_6threadENS_9allocatorIS1_EEEC2B7v160006IDnNS_18__default_init_tagEEEOT_OT0_
	.p2align	2
__ZNSt3__117__compressed_pairIPNS_6threadENS_9allocatorIS1_EEEC2B7v160006IDnNS_18__default_init_tagEEEOT_OT0_: ; @_ZNSt3__117__compressed_pairIPNS_6threadENS_9allocatorIS1_EEEC2B7v160006IDnNS_18__default_init_tagEEEOT_OT0_
	.cfi_startproc
; %bb.0:
	sub	sp, sp, #64
	.cfi_def_cfa_offset 64
	stp	x29, x30, [sp, #48]             ; 16-byte Folded Spill
	add	x29, sp, #48
	.cfi_def_cfa w29, 16
	.cfi_offset w30, -8
	.cfi_offset w29, -16
	stur	x0, [x29, #-8]
	stur	x1, [x29, #-16]
	str	x2, [sp, #24]
	ldur	x0, [x29, #-8]
	str	x0, [sp, #8]                    ; 8-byte Folded Spill
	ldur	x1, [x29, #-16]
	bl	__ZNSt3__122__compressed_pair_elemIPNS_6threadELi0ELb0EEC2B7v160006IDnvEEOT_
	ldr	x0, [sp, #8]                    ; 8-byte Folded Reload
	bl	__ZNSt3__122__compressed_pair_elemINS_9allocatorINS_6threadEEELi1ELb1EEC2B7v160006ENS_18__default_init_tagE
	ldr	x0, [sp, #8]                    ; 8-byte Folded Reload
	ldp	x29, x30, [sp, #48]             ; 16-byte Folded Reload
	add	sp, sp, #64
	ret
	.cfi_endproc
                                        ; -- End function
	.globl	__ZNSt3__122__compressed_pair_elemIPNS_6threadELi0ELb0EEC2B7v160006IDnvEEOT_ ; -- Begin function _ZNSt3__122__compressed_pair_elemIPNS_6threadELi0ELb0EEC2B7v160006IDnvEEOT_
	.weak_def_can_be_hidden	__ZNSt3__122__compressed_pair_elemIPNS_6threadELi0ELb0EEC2B7v160006IDnvEEOT_
	.p2align	2
__ZNSt3__122__compressed_pair_elemIPNS_6threadELi0ELb0EEC2B7v160006IDnvEEOT_: ; @_ZNSt3__122__compressed_pair_elemIPNS_6threadELi0ELb0EEC2B7v160006IDnvEEOT_
	.cfi_startproc
; %bb.0:
	sub	sp, sp, #16
	.cfi_def_cfa_offset 16
	str	x0, [sp, #8]
	str	x1, [sp]
	ldr	x0, [sp, #8]
                                        ; kill: def $x8 killed $xzr
	str	xzr, [x0]
	add	sp, sp, #16
	ret
	.cfi_endproc
                                        ; -- End function
	.private_extern	__ZNSt3__122__compressed_pair_elemINS_9allocatorINS_6threadEEELi1ELb1EEC2B7v160006ENS_18__default_init_tagE ; -- Begin function _ZNSt3__122__compressed_pair_elemINS_9allocatorINS_6threadEEELi1ELb1EEC2B7v160006ENS_18__default_init_tagE
	.globl	__ZNSt3__122__compressed_pair_elemINS_9allocatorINS_6threadEEELi1ELb1EEC2B7v160006ENS_18__default_init_tagE
	.weak_def_can_be_hidden	__ZNSt3__122__compressed_pair_elemINS_9allocatorINS_6threadEEELi1ELb1EEC2B7v160006ENS_18__default_init_tagE
	.p2align	2
__ZNSt3__122__compressed_pair_elemINS_9allocatorINS_6threadEEELi1ELb1EEC2B7v160006ENS_18__default_init_tagE: ; @_ZNSt3__122__compressed_pair_elemINS_9allocatorINS_6threadEEELi1ELb1EEC2B7v160006ENS_18__default_init_tagE
	.cfi_startproc
; %bb.0:
	sub	sp, sp, #48
	.cfi_def_cfa_offset 48
	stp	x29, x30, [sp, #32]             ; 16-byte Folded Spill
	add	x29, sp, #32
	.cfi_def_cfa w29, 16
	.cfi_offset w30, -8
	.cfi_offset w29, -16
	str	x0, [sp, #16]
	ldr	x0, [sp, #16]
	str	x0, [sp, #8]                    ; 8-byte Folded Spill
	bl	__ZNSt3__19allocatorINS_6threadEEC2B7v160006Ev
	ldr	x0, [sp, #8]                    ; 8-byte Folded Reload
	ldp	x29, x30, [sp, #32]             ; 16-byte Folded Reload
	add	sp, sp, #48
	ret
	.cfi_endproc
                                        ; -- End function
	.private_extern	__ZNSt3__19allocatorINS_6threadEEC2B7v160006Ev ; -- Begin function _ZNSt3__19allocatorINS_6threadEEC2B7v160006Ev
	.globl	__ZNSt3__19allocatorINS_6threadEEC2B7v160006Ev
	.weak_def_can_be_hidden	__ZNSt3__19allocatorINS_6threadEEC2B7v160006Ev
	.p2align	2
__ZNSt3__19allocatorINS_6threadEEC2B7v160006Ev: ; @_ZNSt3__19allocatorINS_6threadEEC2B7v160006Ev
	.cfi_startproc
; %bb.0:
	sub	sp, sp, #32
	.cfi_def_cfa_offset 32
	stp	x29, x30, [sp, #16]             ; 16-byte Folded Spill
	add	x29, sp, #16
	.cfi_def_cfa w29, 16
	.cfi_offset w30, -8
	.cfi_offset w29, -16
	str	x0, [sp, #8]
	ldr	x0, [sp, #8]
	str	x0, [sp]                        ; 8-byte Folded Spill
	bl	__ZNSt3__116__non_trivial_ifILb1ENS_9allocatorINS_6threadEEEEC2B7v160006Ev
	ldr	x0, [sp]                        ; 8-byte Folded Reload
	ldp	x29, x30, [sp, #16]             ; 16-byte Folded Reload
	add	sp, sp, #32
	ret
	.cfi_endproc
                                        ; -- End function
	.private_extern	__ZNSt3__116__non_trivial_ifILb1ENS_9allocatorINS_6threadEEEEC2B7v160006Ev ; -- Begin function _ZNSt3__116__non_trivial_ifILb1ENS_9allocatorINS_6threadEEEEC2B7v160006Ev
	.globl	__ZNSt3__116__non_trivial_ifILb1ENS_9allocatorINS_6threadEEEEC2B7v160006Ev
	.weak_def_can_be_hidden	__ZNSt3__116__non_trivial_ifILb1ENS_9allocatorINS_6threadEEEEC2B7v160006Ev
	.p2align	2
__ZNSt3__116__non_trivial_ifILb1ENS_9allocatorINS_6threadEEEEC2B7v160006Ev: ; @_ZNSt3__116__non_trivial_ifILb1ENS_9allocatorINS_6threadEEEEC2B7v160006Ev
	.cfi_startproc
; %bb.0:
	sub	sp, sp, #16
	.cfi_def_cfa_offset 16
	str	x0, [sp, #8]
	ldr	x0, [sp, #8]
	add	sp, sp, #16
	ret
	.cfi_endproc
                                        ; -- End function
	.private_extern	__ZNSt3__15queueINS_8functionIFvvEEENS_5dequeIS3_NS_9allocatorIS3_EEEEEC2B7v160006Ev ; -- Begin function _ZNSt3__15queueINS_8functionIFvvEEENS_5dequeIS3_NS_9allocatorIS3_EEEEEC2B7v160006Ev
	.globl	__ZNSt3__15queueINS_8functionIFvvEEENS_5dequeIS3_NS_9allocatorIS3_EEEEEC2B7v160006Ev
	.weak_def_can_be_hidden	__ZNSt3__15queueINS_8functionIFvvEEENS_5dequeIS3_NS_9allocatorIS3_EEEEEC2B7v160006Ev
	.p2align	2
__ZNSt3__15queueINS_8functionIFvvEEENS_5dequeIS3_NS_9allocatorIS3_EEEEEC2B7v160006Ev: ; @_ZNSt3__15queueINS_8functionIFvvEEENS_5dequeIS3_NS_9allocatorIS3_EEEEEC2B7v160006Ev
	.cfi_startproc
; %bb.0:
	sub	sp, sp, #32
	.cfi_def_cfa_offset 32
	stp	x29, x30, [sp, #16]             ; 16-byte Folded Spill
	add	x29, sp, #16
	.cfi_def_cfa w29, 16
	.cfi_offset w30, -8
	.cfi_offset w29, -16
	str	x0, [sp, #8]
	ldr	x0, [sp, #8]
	str	x0, [sp]                        ; 8-byte Folded Spill
	bl	__ZNSt3__15dequeINS_8functionIFvvEEENS_9allocatorIS3_EEEC1B7v160006Ev
	ldr	x0, [sp]                        ; 8-byte Folded Reload
	ldp	x29, x30, [sp, #16]             ; 16-byte Folded Reload
	add	sp, sp, #32
	ret
	.cfi_endproc
                                        ; -- End function
	.private_extern	__ZNSt3__15dequeINS_8functionIFvvEEENS_9allocatorIS3_EEEC1B7v160006Ev ; -- Begin function _ZNSt3__15dequeINS_8functionIFvvEEENS_9allocatorIS3_EEEC1B7v160006Ev
	.globl	__ZNSt3__15dequeINS_8functionIFvvEEENS_9allocatorIS3_EEEC1B7v160006Ev
	.weak_def_can_be_hidden	__ZNSt3__15dequeINS_8functionIFvvEEENS_9allocatorIS3_EEEC1B7v160006Ev
	.p2align	2
__ZNSt3__15dequeINS_8functionIFvvEEENS_9allocatorIS3_EEEC1B7v160006Ev: ; @_ZNSt3__15dequeINS_8functionIFvvEEENS_9allocatorIS3_EEEC1B7v160006Ev
	.cfi_startproc
; %bb.0:
	sub	sp, sp, #32
	.cfi_def_cfa_offset 32
	stp	x29, x30, [sp, #16]             ; 16-byte Folded Spill
	add	x29, sp, #16
	.cfi_def_cfa w29, 16
	.cfi_offset w30, -8
	.cfi_offset w29, -16
	str	x0, [sp, #8]
	ldr	x0, [sp, #8]
	str	x0, [sp]                        ; 8-byte Folded Spill
	bl	__ZNSt3__15dequeINS_8functionIFvvEEENS_9allocatorIS3_EEEC2B7v160006Ev
	ldr	x0, [sp]                        ; 8-byte Folded Reload
	ldp	x29, x30, [sp, #16]             ; 16-byte Folded Reload
	add	sp, sp, #32
	ret
	.cfi_endproc
                                        ; -- End function
	.private_extern	__ZNSt3__15dequeINS_8functionIFvvEEENS_9allocatorIS3_EEEC2B7v160006Ev ; -- Begin function _ZNSt3__15dequeINS_8functionIFvvEEENS_9allocatorIS3_EEEC2B7v160006Ev
	.globl	__ZNSt3__15dequeINS_8functionIFvvEEENS_9allocatorIS3_EEEC2B7v160006Ev
	.weak_def_can_be_hidden	__ZNSt3__15dequeINS_8functionIFvvEEENS_9allocatorIS3_EEEC2B7v160006Ev
	.p2align	2
__ZNSt3__15dequeINS_8functionIFvvEEENS_9allocatorIS3_EEEC2B7v160006Ev: ; @_ZNSt3__15dequeINS_8functionIFvvEEENS_9allocatorIS3_EEEC2B7v160006Ev
Lfunc_begin7:
	.cfi_startproc
	.cfi_personality 155, ___gxx_personality_v0
	.cfi_lsda 16, Lexception7
; %bb.0:
	sub	sp, sp, #48
	.cfi_def_cfa_offset 48
	stp	x29, x30, [sp, #32]             ; 16-byte Folded Spill
	add	x29, sp, #32
	.cfi_def_cfa w29, 16
	.cfi_offset w30, -8
	.cfi_offset w29, -16
	stur	x0, [x29, #-8]
	ldur	x0, [x29, #-8]
	str	x0, [sp, #8]                    ; 8-byte Folded Spill
	bl	__ZNSt3__114__split_bufferIPNS_8functionIFvvEEENS_9allocatorIS4_EEEC1Ev
	ldr	x8, [sp, #8]                    ; 8-byte Folded Reload
	str	xzr, [x8, #32]
	sub	x1, x29, #12
	stur	wzr, [x29, #-12]
Ltmp43:
	add	x0, x8, #40
	sub	x2, x29, #13
	bl	__ZNSt3__117__compressed_pairImNS_9allocatorINS_8functionIFvvEEEEEEC1B7v160006IiNS_18__default_init_tagEEEOT_OT0_
Ltmp44:
	b	LBB39_1
LBB39_1:
	ldr	x0, [sp, #8]                    ; 8-byte Folded Reload
	ldp	x29, x30, [sp, #32]             ; 16-byte Folded Reload
	add	sp, sp, #48
	ret
LBB39_2:
Ltmp45:
	bl	___clang_call_terminate
Lfunc_end7:
	.cfi_endproc
	.section	__TEXT,__gcc_except_tab
	.p2align	2, 0x0
GCC_except_table39:
Lexception7:
	.byte	255                             ; @LPStart Encoding = omit
	.byte	155                             ; @TType Encoding = indirect pcrel sdata4
	.uleb128 Lttbase2-Lttbaseref2
Lttbaseref2:
	.byte	1                               ; Call site Encoding = uleb128
	.uleb128 Lcst_end7-Lcst_begin7
Lcst_begin7:
	.uleb128 Ltmp43-Lfunc_begin7            ; >> Call Site 1 <<
	.uleb128 Ltmp44-Ltmp43                  ;   Call between Ltmp43 and Ltmp44
	.uleb128 Ltmp45-Lfunc_begin7            ;     jumps to Ltmp45
	.byte	1                               ;   On action: 1
Lcst_end7:
	.byte	1                               ; >> Action Record 1 <<
                                        ;   Catch TypeInfo 1
	.byte	0                               ;   No further actions
	.p2align	2, 0x0
                                        ; >> Catch TypeInfos <<
	.long	0                               ; TypeInfo 1
Lttbase2:
	.p2align	2, 0x0
                                        ; -- End function
	.section	__TEXT,__text,regular,pure_instructions
	.private_extern	__ZNSt3__114__split_bufferIPNS_8functionIFvvEEENS_9allocatorIS4_EEEC1Ev ; -- Begin function _ZNSt3__114__split_bufferIPNS_8functionIFvvEEENS_9allocatorIS4_EEEC1Ev
	.globl	__ZNSt3__114__split_bufferIPNS_8functionIFvvEEENS_9allocatorIS4_EEEC1Ev
	.weak_def_can_be_hidden	__ZNSt3__114__split_bufferIPNS_8functionIFvvEEENS_9allocatorIS4_EEEC1Ev
	.p2align	2
__ZNSt3__114__split_bufferIPNS_8functionIFvvEEENS_9allocatorIS4_EEEC1Ev: ; @_ZNSt3__114__split_bufferIPNS_8functionIFvvEEENS_9allocatorIS4_EEEC1Ev
	.cfi_startproc
; %bb.0:
	sub	sp, sp, #32
	.cfi_def_cfa_offset 32
	stp	x29, x30, [sp, #16]             ; 16-byte Folded Spill
	add	x29, sp, #16
	.cfi_def_cfa w29, 16
	.cfi_offset w30, -8
	.cfi_offset w29, -16
	str	x0, [sp, #8]
	ldr	x0, [sp, #8]
	str	x0, [sp]                        ; 8-byte Folded Spill
	bl	__ZNSt3__114__split_bufferIPNS_8functionIFvvEEENS_9allocatorIS4_EEEC2Ev
	ldr	x0, [sp]                        ; 8-byte Folded Reload
	ldp	x29, x30, [sp, #16]             ; 16-byte Folded Reload
	add	sp, sp, #32
	ret
	.cfi_endproc
                                        ; -- End function
	.globl	__ZNSt3__117__compressed_pairImNS_9allocatorINS_8functionIFvvEEEEEEC1B7v160006IiNS_18__default_init_tagEEEOT_OT0_ ; -- Begin function _ZNSt3__117__compressed_pairImNS_9allocatorINS_8functionIFvvEEEEEEC1B7v160006IiNS_18__default_init_tagEEEOT_OT0_
	.weak_def_can_be_hidden	__ZNSt3__117__compressed_pairImNS_9allocatorINS_8functionIFvvEEEEEEC1B7v160006IiNS_18__default_init_tagEEEOT_OT0_
	.p2align	2
__ZNSt3__117__compressed_pairImNS_9allocatorINS_8functionIFvvEEEEEEC1B7v160006IiNS_18__default_init_tagEEEOT_OT0_: ; @_ZNSt3__117__compressed_pairImNS_9allocatorINS_8functionIFvvEEEEEEC1B7v160006IiNS_18__default_init_tagEEEOT_OT0_
	.cfi_startproc
; %bb.0:
	sub	sp, sp, #48
	.cfi_def_cfa_offset 48
	stp	x29, x30, [sp, #32]             ; 16-byte Folded Spill
	add	x29, sp, #32
	.cfi_def_cfa w29, 16
	.cfi_offset w30, -8
	.cfi_offset w29, -16
	stur	x0, [x29, #-8]
	str	x1, [sp, #16]
	str	x2, [sp, #8]
	ldur	x0, [x29, #-8]
	str	x0, [sp]                        ; 8-byte Folded Spill
	ldr	x1, [sp, #16]
	ldr	x2, [sp, #8]
	bl	__ZNSt3__117__compressed_pairImNS_9allocatorINS_8functionIFvvEEEEEEC2B7v160006IiNS_18__default_init_tagEEEOT_OT0_
	ldr	x0, [sp]                        ; 8-byte Folded Reload
	ldp	x29, x30, [sp, #32]             ; 16-byte Folded Reload
	add	sp, sp, #48
	ret
	.cfi_endproc
                                        ; -- End function
	.private_extern	__ZNSt3__114__split_bufferIPNS_8functionIFvvEEENS_9allocatorIS4_EEEC2Ev ; -- Begin function _ZNSt3__114__split_bufferIPNS_8functionIFvvEEENS_9allocatorIS4_EEEC2Ev
	.globl	__ZNSt3__114__split_bufferIPNS_8functionIFvvEEENS_9allocatorIS4_EEEC2Ev
	.weak_def_can_be_hidden	__ZNSt3__114__split_bufferIPNS_8functionIFvvEEENS_9allocatorIS4_EEEC2Ev
	.p2align	2
__ZNSt3__114__split_bufferIPNS_8functionIFvvEEENS_9allocatorIS4_EEEC2Ev: ; @_ZNSt3__114__split_bufferIPNS_8functionIFvvEEENS_9allocatorIS4_EEEC2Ev
Lfunc_begin8:
	.cfi_startproc
	.cfi_personality 155, ___gxx_personality_v0
	.cfi_lsda 16, Lexception8
; %bb.0:
	sub	sp, sp, #48
	.cfi_def_cfa_offset 48
	stp	x29, x30, [sp, #32]             ; 16-byte Folded Spill
	add	x29, sp, #32
	.cfi_def_cfa w29, 16
	.cfi_offset w30, -8
	.cfi_offset w29, -16
	stur	x0, [x29, #-8]
	ldur	x8, [x29, #-8]
	str	x8, [sp]                        ; 8-byte Folded Spill
                                        ; kill: def $x9 killed $xzr
	str	xzr, [x8]
	str	xzr, [x8, #8]
	str	xzr, [x8, #16]
	add	x1, sp, #16
	str	xzr, [sp, #16]
Ltmp46:
	add	x0, x8, #24
	add	x2, sp, #15
	bl	__ZNSt3__117__compressed_pairIPPNS_8functionIFvvEEENS_9allocatorIS4_EEEC1B7v160006IDnNS_18__default_init_tagEEEOT_OT0_
Ltmp47:
	b	LBB42_1
LBB42_1:
	ldr	x0, [sp]                        ; 8-byte Folded Reload
	ldp	x29, x30, [sp, #32]             ; 16-byte Folded Reload
	add	sp, sp, #48
	ret
LBB42_2:
Ltmp48:
	bl	___clang_call_terminate
Lfunc_end8:
	.cfi_endproc
	.section	__TEXT,__gcc_except_tab
	.p2align	2, 0x0
GCC_except_table42:
Lexception8:
	.byte	255                             ; @LPStart Encoding = omit
	.byte	155                             ; @TType Encoding = indirect pcrel sdata4
	.uleb128 Lttbase3-Lttbaseref3
Lttbaseref3:
	.byte	1                               ; Call site Encoding = uleb128
	.uleb128 Lcst_end8-Lcst_begin8
Lcst_begin8:
	.uleb128 Ltmp46-Lfunc_begin8            ; >> Call Site 1 <<
	.uleb128 Ltmp47-Ltmp46                  ;   Call between Ltmp46 and Ltmp47
	.uleb128 Ltmp48-Lfunc_begin8            ;     jumps to Ltmp48
	.byte	1                               ;   On action: 1
Lcst_end8:
	.byte	1                               ; >> Action Record 1 <<
                                        ;   Catch TypeInfo 1
	.byte	0                               ;   No further actions
	.p2align	2, 0x0
                                        ; >> Catch TypeInfos <<
	.long	0                               ; TypeInfo 1
Lttbase3:
	.p2align	2, 0x0
                                        ; -- End function
	.section	__TEXT,__text,regular,pure_instructions
	.globl	__ZNSt3__117__compressed_pairIPPNS_8functionIFvvEEENS_9allocatorIS4_EEEC1B7v160006IDnNS_18__default_init_tagEEEOT_OT0_ ; -- Begin function _ZNSt3__117__compressed_pairIPPNS_8functionIFvvEEENS_9allocatorIS4_EEEC1B7v160006IDnNS_18__default_init_tagEEEOT_OT0_
	.weak_def_can_be_hidden	__ZNSt3__117__compressed_pairIPPNS_8functionIFvvEEENS_9allocatorIS4_EEEC1B7v160006IDnNS_18__default_init_tagEEEOT_OT0_
	.p2align	2
__ZNSt3__117__compressed_pairIPPNS_8functionIFvvEEENS_9allocatorIS4_EEEC1B7v160006IDnNS_18__default_init_tagEEEOT_OT0_: ; @_ZNSt3__117__compressed_pairIPPNS_8functionIFvvEEENS_9allocatorIS4_EEEC1B7v160006IDnNS_18__default_init_tagEEEOT_OT0_
	.cfi_startproc
; %bb.0:
	sub	sp, sp, #48
	.cfi_def_cfa_offset 48
	stp	x29, x30, [sp, #32]             ; 16-byte Folded Spill
	add	x29, sp, #32
	.cfi_def_cfa w29, 16
	.cfi_offset w30, -8
	.cfi_offset w29, -16
	stur	x0, [x29, #-8]
	str	x1, [sp, #16]
	str	x2, [sp, #8]
	ldur	x0, [x29, #-8]
	str	x0, [sp]                        ; 8-byte Folded Spill
	ldr	x1, [sp, #16]
	ldr	x2, [sp, #8]
	bl	__ZNSt3__117__compressed_pairIPPNS_8functionIFvvEEENS_9allocatorIS4_EEEC2B7v160006IDnNS_18__default_init_tagEEEOT_OT0_
	ldr	x0, [sp]                        ; 8-byte Folded Reload
	ldp	x29, x30, [sp, #32]             ; 16-byte Folded Reload
	add	sp, sp, #48
	ret
	.cfi_endproc
                                        ; -- End function
	.globl	__ZNSt3__117__compressed_pairIPPNS_8functionIFvvEEENS_9allocatorIS4_EEEC2B7v160006IDnNS_18__default_init_tagEEEOT_OT0_ ; -- Begin function _ZNSt3__117__compressed_pairIPPNS_8functionIFvvEEENS_9allocatorIS4_EEEC2B7v160006IDnNS_18__default_init_tagEEEOT_OT0_
	.weak_def_can_be_hidden	__ZNSt3__117__compressed_pairIPPNS_8functionIFvvEEENS_9allocatorIS4_EEEC2B7v160006IDnNS_18__default_init_tagEEEOT_OT0_
	.p2align	2
__ZNSt3__117__compressed_pairIPPNS_8functionIFvvEEENS_9allocatorIS4_EEEC2B7v160006IDnNS_18__default_init_tagEEEOT_OT0_: ; @_ZNSt3__117__compressed_pairIPPNS_8functionIFvvEEENS_9allocatorIS4_EEEC2B7v160006IDnNS_18__default_init_tagEEEOT_OT0_
	.cfi_startproc
; %bb.0:
	sub	sp, sp, #64
	.cfi_def_cfa_offset 64
	stp	x29, x30, [sp, #48]             ; 16-byte Folded Spill
	add	x29, sp, #48
	.cfi_def_cfa w29, 16
	.cfi_offset w30, -8
	.cfi_offset w29, -16
	stur	x0, [x29, #-8]
	stur	x1, [x29, #-16]
	str	x2, [sp, #24]
	ldur	x0, [x29, #-8]
	str	x0, [sp, #8]                    ; 8-byte Folded Spill
	ldur	x1, [x29, #-16]
	bl	__ZNSt3__122__compressed_pair_elemIPPNS_8functionIFvvEEELi0ELb0EEC2B7v160006IDnvEEOT_
	ldr	x0, [sp, #8]                    ; 8-byte Folded Reload
	bl	__ZNSt3__122__compressed_pair_elemINS_9allocatorIPNS_8functionIFvvEEEEELi1ELb1EEC2B7v160006ENS_18__default_init_tagE
	ldr	x0, [sp, #8]                    ; 8-byte Folded Reload
	ldp	x29, x30, [sp, #48]             ; 16-byte Folded Reload
	add	sp, sp, #64
	ret
	.cfi_endproc
                                        ; -- End function
	.globl	__ZNSt3__122__compressed_pair_elemIPPNS_8functionIFvvEEELi0ELb0EEC2B7v160006IDnvEEOT_ ; -- Begin function _ZNSt3__122__compressed_pair_elemIPPNS_8functionIFvvEEELi0ELb0EEC2B7v160006IDnvEEOT_
	.weak_def_can_be_hidden	__ZNSt3__122__compressed_pair_elemIPPNS_8functionIFvvEEELi0ELb0EEC2B7v160006IDnvEEOT_
	.p2align	2
__ZNSt3__122__compressed_pair_elemIPPNS_8functionIFvvEEELi0ELb0EEC2B7v160006IDnvEEOT_: ; @_ZNSt3__122__compressed_pair_elemIPPNS_8functionIFvvEEELi0ELb0EEC2B7v160006IDnvEEOT_
	.cfi_startproc
; %bb.0:
	sub	sp, sp, #16
	.cfi_def_cfa_offset 16
	str	x0, [sp, #8]
	str	x1, [sp]
	ldr	x0, [sp, #8]
                                        ; kill: def $x8 killed $xzr
	str	xzr, [x0]
	add	sp, sp, #16
	ret
	.cfi_endproc
                                        ; -- End function
	.private_extern	__ZNSt3__122__compressed_pair_elemINS_9allocatorIPNS_8functionIFvvEEEEELi1ELb1EEC2B7v160006ENS_18__default_init_tagE ; -- Begin function _ZNSt3__122__compressed_pair_elemINS_9allocatorIPNS_8functionIFvvEEEEELi1ELb1EEC2B7v160006ENS_18__default_init_tagE
	.globl	__ZNSt3__122__compressed_pair_elemINS_9allocatorIPNS_8functionIFvvEEEEELi1ELb1EEC2B7v160006ENS_18__default_init_tagE
	.weak_def_can_be_hidden	__ZNSt3__122__compressed_pair_elemINS_9allocatorIPNS_8functionIFvvEEEEELi1ELb1EEC2B7v160006ENS_18__default_init_tagE
	.p2align	2
__ZNSt3__122__compressed_pair_elemINS_9allocatorIPNS_8functionIFvvEEEEELi1ELb1EEC2B7v160006ENS_18__default_init_tagE: ; @_ZNSt3__122__compressed_pair_elemINS_9allocatorIPNS_8functionIFvvEEEEELi1ELb1EEC2B7v160006ENS_18__default_init_tagE
	.cfi_startproc
; %bb.0:
	sub	sp, sp, #48
	.cfi_def_cfa_offset 48
	stp	x29, x30, [sp, #32]             ; 16-byte Folded Spill
	add	x29, sp, #32
	.cfi_def_cfa w29, 16
	.cfi_offset w30, -8
	.cfi_offset w29, -16
	str	x0, [sp, #16]
	ldr	x0, [sp, #16]
	str	x0, [sp, #8]                    ; 8-byte Folded Spill
	bl	__ZNSt3__19allocatorIPNS_8functionIFvvEEEEC2B7v160006Ev
	ldr	x0, [sp, #8]                    ; 8-byte Folded Reload
	ldp	x29, x30, [sp, #32]             ; 16-byte Folded Reload
	add	sp, sp, #48
	ret
	.cfi_endproc
                                        ; -- End function
	.private_extern	__ZNSt3__19allocatorIPNS_8functionIFvvEEEEC2B7v160006Ev ; -- Begin function _ZNSt3__19allocatorIPNS_8functionIFvvEEEEC2B7v160006Ev
	.globl	__ZNSt3__19allocatorIPNS_8functionIFvvEEEEC2B7v160006Ev
	.weak_def_can_be_hidden	__ZNSt3__19allocatorIPNS_8functionIFvvEEEEC2B7v160006Ev
	.p2align	2
__ZNSt3__19allocatorIPNS_8functionIFvvEEEEC2B7v160006Ev: ; @_ZNSt3__19allocatorIPNS_8functionIFvvEEEEC2B7v160006Ev
	.cfi_startproc
; %bb.0:
	sub	sp, sp, #32
	.cfi_def_cfa_offset 32
	stp	x29, x30, [sp, #16]             ; 16-byte Folded Spill
	add	x29, sp, #16
	.cfi_def_cfa w29, 16
	.cfi_offset w30, -8
	.cfi_offset w29, -16
	str	x0, [sp, #8]
	ldr	x0, [sp, #8]
	str	x0, [sp]                        ; 8-byte Folded Spill
	bl	__ZNSt3__116__non_trivial_ifILb1ENS_9allocatorIPNS_8functionIFvvEEEEEEC2B7v160006Ev
	ldr	x0, [sp]                        ; 8-byte Folded Reload
	ldp	x29, x30, [sp, #16]             ; 16-byte Folded Reload
	add	sp, sp, #32
	ret
	.cfi_endproc
                                        ; -- End function
	.private_extern	__ZNSt3__116__non_trivial_ifILb1ENS_9allocatorIPNS_8functionIFvvEEEEEEC2B7v160006Ev ; -- Begin function _ZNSt3__116__non_trivial_ifILb1ENS_9allocatorIPNS_8functionIFvvEEEEEEC2B7v160006Ev
	.globl	__ZNSt3__116__non_trivial_ifILb1ENS_9allocatorIPNS_8functionIFvvEEEEEEC2B7v160006Ev
	.weak_def_can_be_hidden	__ZNSt3__116__non_trivial_ifILb1ENS_9allocatorIPNS_8functionIFvvEEEEEEC2B7v160006Ev
	.p2align	2
__ZNSt3__116__non_trivial_ifILb1ENS_9allocatorIPNS_8functionIFvvEEEEEEC2B7v160006Ev: ; @_ZNSt3__116__non_trivial_ifILb1ENS_9allocatorIPNS_8functionIFvvEEEEEEC2B7v160006Ev
	.cfi_startproc
; %bb.0:
	sub	sp, sp, #16
	.cfi_def_cfa_offset 16
	str	x0, [sp, #8]
	ldr	x0, [sp, #8]
	add	sp, sp, #16
	ret
	.cfi_endproc
                                        ; -- End function
	.globl	__ZNSt3__117__compressed_pairImNS_9allocatorINS_8functionIFvvEEEEEEC2B7v160006IiNS_18__default_init_tagEEEOT_OT0_ ; -- Begin function _ZNSt3__117__compressed_pairImNS_9allocatorINS_8functionIFvvEEEEEEC2B7v160006IiNS_18__default_init_tagEEEOT_OT0_
	.weak_def_can_be_hidden	__ZNSt3__117__compressed_pairImNS_9allocatorINS_8functionIFvvEEEEEEC2B7v160006IiNS_18__default_init_tagEEEOT_OT0_
	.p2align	2
__ZNSt3__117__compressed_pairImNS_9allocatorINS_8functionIFvvEEEEEEC2B7v160006IiNS_18__default_init_tagEEEOT_OT0_: ; @_ZNSt3__117__compressed_pairImNS_9allocatorINS_8functionIFvvEEEEEEC2B7v160006IiNS_18__default_init_tagEEEOT_OT0_
	.cfi_startproc
; %bb.0:
	sub	sp, sp, #64
	.cfi_def_cfa_offset 64
	stp	x29, x30, [sp, #48]             ; 16-byte Folded Spill
	add	x29, sp, #48
	.cfi_def_cfa w29, 16
	.cfi_offset w30, -8
	.cfi_offset w29, -16
	stur	x0, [x29, #-8]
	stur	x1, [x29, #-16]
	str	x2, [sp, #24]
	ldur	x0, [x29, #-8]
	str	x0, [sp, #8]                    ; 8-byte Folded Spill
	ldur	x1, [x29, #-16]
	bl	__ZNSt3__122__compressed_pair_elemImLi0ELb0EEC2B7v160006IivEEOT_
	ldr	x0, [sp, #8]                    ; 8-byte Folded Reload
	bl	__ZNSt3__122__compressed_pair_elemINS_9allocatorINS_8functionIFvvEEEEELi1ELb1EEC2B7v160006ENS_18__default_init_tagE
	ldr	x0, [sp, #8]                    ; 8-byte Folded Reload
	ldp	x29, x30, [sp, #48]             ; 16-byte Folded Reload
	add	sp, sp, #64
	ret
	.cfi_endproc
                                        ; -- End function
	.globl	__ZNSt3__122__compressed_pair_elemImLi0ELb0EEC2B7v160006IivEEOT_ ; -- Begin function _ZNSt3__122__compressed_pair_elemImLi0ELb0EEC2B7v160006IivEEOT_
	.weak_def_can_be_hidden	__ZNSt3__122__compressed_pair_elemImLi0ELb0EEC2B7v160006IivEEOT_
	.p2align	2
__ZNSt3__122__compressed_pair_elemImLi0ELb0EEC2B7v160006IivEEOT_: ; @_ZNSt3__122__compressed_pair_elemImLi0ELb0EEC2B7v160006IivEEOT_
	.cfi_startproc
; %bb.0:
	sub	sp, sp, #16
	.cfi_def_cfa_offset 16
	str	x0, [sp, #8]
	str	x1, [sp]
	ldr	x0, [sp, #8]
	ldr	x8, [sp]
	ldrsw	x8, [x8]
	str	x8, [x0]
	add	sp, sp, #16
	ret
	.cfi_endproc
                                        ; -- End function
	.private_extern	__ZNSt3__122__compressed_pair_elemINS_9allocatorINS_8functionIFvvEEEEELi1ELb1EEC2B7v160006ENS_18__default_init_tagE ; -- Begin function _ZNSt3__122__compressed_pair_elemINS_9allocatorINS_8functionIFvvEEEEELi1ELb1EEC2B7v160006ENS_18__default_init_tagE
	.globl	__ZNSt3__122__compressed_pair_elemINS_9allocatorINS_8functionIFvvEEEEELi1ELb1EEC2B7v160006ENS_18__default_init_tagE
	.weak_def_can_be_hidden	__ZNSt3__122__compressed_pair_elemINS_9allocatorINS_8functionIFvvEEEEELi1ELb1EEC2B7v160006ENS_18__default_init_tagE
	.p2align	2
__ZNSt3__122__compressed_pair_elemINS_9allocatorINS_8functionIFvvEEEEELi1ELb1EEC2B7v160006ENS_18__default_init_tagE: ; @_ZNSt3__122__compressed_pair_elemINS_9allocatorINS_8functionIFvvEEEEELi1ELb1EEC2B7v160006ENS_18__default_init_tagE
	.cfi_startproc
; %bb.0:
	sub	sp, sp, #48
	.cfi_def_cfa_offset 48
	stp	x29, x30, [sp, #32]             ; 16-byte Folded Spill
	add	x29, sp, #32
	.cfi_def_cfa w29, 16
	.cfi_offset w30, -8
	.cfi_offset w29, -16
	str	x0, [sp, #16]
	ldr	x0, [sp, #16]
	str	x0, [sp, #8]                    ; 8-byte Folded Spill
	bl	__ZNSt3__19allocatorINS_8functionIFvvEEEEC2B7v160006Ev
	ldr	x0, [sp, #8]                    ; 8-byte Folded Reload
	ldp	x29, x30, [sp, #32]             ; 16-byte Folded Reload
	add	sp, sp, #48
	ret
	.cfi_endproc
                                        ; -- End function
	.private_extern	__ZNSt3__19allocatorINS_8functionIFvvEEEEC2B7v160006Ev ; -- Begin function _ZNSt3__19allocatorINS_8functionIFvvEEEEC2B7v160006Ev
	.globl	__ZNSt3__19allocatorINS_8functionIFvvEEEEC2B7v160006Ev
	.weak_def_can_be_hidden	__ZNSt3__19allocatorINS_8functionIFvvEEEEC2B7v160006Ev
	.p2align	2
__ZNSt3__19allocatorINS_8functionIFvvEEEEC2B7v160006Ev: ; @_ZNSt3__19allocatorINS_8functionIFvvEEEEC2B7v160006Ev
	.cfi_startproc
; %bb.0:
	sub	sp, sp, #32
	.cfi_def_cfa_offset 32
	stp	x29, x30, [sp, #16]             ; 16-byte Folded Spill
	add	x29, sp, #16
	.cfi_def_cfa w29, 16
	.cfi_offset w30, -8
	.cfi_offset w29, -16
	str	x0, [sp, #8]
	ldr	x0, [sp, #8]
	str	x0, [sp]                        ; 8-byte Folded Spill
	bl	__ZNSt3__116__non_trivial_ifILb1ENS_9allocatorINS_8functionIFvvEEEEEEC2B7v160006Ev
	ldr	x0, [sp]                        ; 8-byte Folded Reload
	ldp	x29, x30, [sp, #16]             ; 16-byte Folded Reload
	add	sp, sp, #32
	ret
	.cfi_endproc
                                        ; -- End function
	.private_extern	__ZNSt3__116__non_trivial_ifILb1ENS_9allocatorINS_8functionIFvvEEEEEEC2B7v160006Ev ; -- Begin function _ZNSt3__116__non_trivial_ifILb1ENS_9allocatorINS_8functionIFvvEEEEEEC2B7v160006Ev
	.globl	__ZNSt3__116__non_trivial_ifILb1ENS_9allocatorINS_8functionIFvvEEEEEEC2B7v160006Ev
	.weak_def_can_be_hidden	__ZNSt3__116__non_trivial_ifILb1ENS_9allocatorINS_8functionIFvvEEEEEEC2B7v160006Ev
	.p2align	2
__ZNSt3__116__non_trivial_ifILb1ENS_9allocatorINS_8functionIFvvEEEEEEC2B7v160006Ev: ; @_ZNSt3__116__non_trivial_ifILb1ENS_9allocatorINS_8functionIFvvEEEEEEC2B7v160006Ev
	.cfi_startproc
; %bb.0:
	sub	sp, sp, #16
	.cfi_def_cfa_offset 16
	str	x0, [sp, #8]
	ldr	x0, [sp, #8]
	add	sp, sp, #16
	ret
	.cfi_endproc
                                        ; -- End function
	.private_extern	__ZNSt3__15mutexC2B7v160006Ev ; -- Begin function _ZNSt3__15mutexC2B7v160006Ev
	.globl	__ZNSt3__15mutexC2B7v160006Ev
	.weak_def_can_be_hidden	__ZNSt3__15mutexC2B7v160006Ev
	.p2align	2
__ZNSt3__15mutexC2B7v160006Ev:          ; @_ZNSt3__15mutexC2B7v160006Ev
	.cfi_startproc
; %bb.0:
	sub	sp, sp, #32
	.cfi_def_cfa_offset 32
	stp	x29, x30, [sp, #16]             ; 16-byte Folded Spill
	add	x29, sp, #16
	.cfi_def_cfa w29, 16
	.cfi_offset w30, -8
	.cfi_offset w29, -16
	str	x0, [sp, #8]
	ldr	x8, [sp, #8]
	str	x8, [sp]                        ; 8-byte Folded Spill
	mov	x9, #43943
	movk	x9, #12970, lsl #16
	str	x9, [x8]
	add	x0, x8, #8
	mov	w1, #0
	mov	x2, #56
	bl	_memset
	ldr	x0, [sp]                        ; 8-byte Folded Reload
	ldp	x29, x30, [sp, #16]             ; 16-byte Folded Reload
	add	sp, sp, #32
	ret
	.cfi_endproc
                                        ; -- End function
	.private_extern	__ZNSt3__118condition_variableC2B7v160006Ev ; -- Begin function _ZNSt3__118condition_variableC2B7v160006Ev
	.globl	__ZNSt3__118condition_variableC2B7v160006Ev
	.weak_def_can_be_hidden	__ZNSt3__118condition_variableC2B7v160006Ev
	.p2align	2
__ZNSt3__118condition_variableC2B7v160006Ev: ; @_ZNSt3__118condition_variableC2B7v160006Ev
	.cfi_startproc
; %bb.0:
	sub	sp, sp, #32
	.cfi_def_cfa_offset 32
	stp	x29, x30, [sp, #16]             ; 16-byte Folded Spill
	add	x29, sp, #16
	.cfi_def_cfa w29, 16
	.cfi_offset w30, -8
	.cfi_offset w29, -16
	str	x0, [sp, #8]
	ldr	x8, [sp, #8]
	str	x8, [sp]                        ; 8-byte Folded Spill
	mov	x9, #45499
	movk	x9, #15536, lsl #16
	str	x9, [x8]
	add	x0, x8, #8
	mov	w1, #0
	mov	x2, #40
	bl	_memset
	ldr	x0, [sp]                        ; 8-byte Folded Reload
	ldp	x29, x30, [sp, #16]             ; 16-byte Folded Reload
	add	sp, sp, #32
	ret
	.cfi_endproc
                                        ; -- End function
	.private_extern	__ZNSt3__16vectorINS_6threadENS_9allocatorIS1_EEE9__end_capB7v160006Ev ; -- Begin function _ZNSt3__16vectorINS_6threadENS_9allocatorIS1_EEE9__end_capB7v160006Ev
	.globl	__ZNSt3__16vectorINS_6threadENS_9allocatorIS1_EEE9__end_capB7v160006Ev
	.weak_definition	__ZNSt3__16vectorINS_6threadENS_9allocatorIS1_EEE9__end_capB7v160006Ev
	.p2align	2
__ZNSt3__16vectorINS_6threadENS_9allocatorIS1_EEE9__end_capB7v160006Ev: ; @_ZNSt3__16vectorINS_6threadENS_9allocatorIS1_EEE9__end_capB7v160006Ev
	.cfi_startproc
; %bb.0:
	sub	sp, sp, #32
	.cfi_def_cfa_offset 32
	stp	x29, x30, [sp, #16]             ; 16-byte Folded Spill
	add	x29, sp, #16
	.cfi_def_cfa w29, 16
	.cfi_offset w30, -8
	.cfi_offset w29, -16
	str	x0, [sp, #8]
	ldr	x8, [sp, #8]
	add	x0, x8, #16
	bl	__ZNSt3__117__compressed_pairIPNS_6threadENS_9allocatorIS1_EEE5firstB7v160006Ev
	ldp	x29, x30, [sp, #16]             ; 16-byte Folded Reload
	add	sp, sp, #32
	ret
	.cfi_endproc
                                        ; -- End function
	.globl	__ZNSt3__16vectorINS_6threadENS_9allocatorIS1_EEE22__construct_one_at_endB7v160006IJZN10ThreadPoolC1EmEUlvE_EEEvDpOT_ ; -- Begin function _ZNSt3__16vectorINS_6threadENS_9allocatorIS1_EEE22__construct_one_at_endB7v160006IJZN10ThreadPoolC1EmEUlvE_EEEvDpOT_
	.weak_definition	__ZNSt3__16vectorINS_6threadENS_9allocatorIS1_EEE22__construct_one_at_endB7v160006IJZN10ThreadPoolC1EmEUlvE_EEEvDpOT_
	.p2align	2
__ZNSt3__16vectorINS_6threadENS_9allocatorIS1_EEE22__construct_one_at_endB7v160006IJZN10ThreadPoolC1EmEUlvE_EEEvDpOT_: ; @_ZNSt3__16vectorINS_6threadENS_9allocatorIS1_EEE22__construct_one_at_endB7v160006IJZN10ThreadPoolC1EmEUlvE_EEEvDpOT_
Lfunc_begin9:
	.cfi_startproc
	.cfi_personality 155, ___gxx_personality_v0
	.cfi_lsda 16, Lexception9
; %bb.0:
	sub	sp, sp, #96
	.cfi_def_cfa_offset 96
	stp	x29, x30, [sp, #80]             ; 16-byte Folded Spill
	add	x29, sp, #80
	.cfi_def_cfa w29, 16
	.cfi_offset w30, -8
	.cfi_offset w29, -16
	stur	x0, [x29, #-8]
	stur	x1, [x29, #-16]
	ldur	x1, [x29, #-8]
	str	x1, [sp, #8]                    ; 8-byte Folded Spill
	add	x0, sp, #40
	mov	x2, #1
	bl	__ZNSt3__16vectorINS_6threadENS_9allocatorIS1_EEE21_ConstructTransactionC1B7v160006ERS4_m
	ldr	x0, [sp, #8]                    ; 8-byte Folded Reload
	bl	__ZNSt3__16vectorINS_6threadENS_9allocatorIS1_EEE7__allocB7v160006Ev
	str	x0, [sp, #16]                   ; 8-byte Folded Spill
	ldr	x0, [sp, #48]
	bl	__ZNSt3__112__to_addressB7v160006INS_6threadEEEPT_S3_
	mov	x1, x0
	ldr	x0, [sp, #16]                   ; 8-byte Folded Reload
	ldur	x2, [x29, #-16]
Ltmp53:
	bl	__ZNSt3__116allocator_traitsINS_9allocatorINS_6threadEEEE9constructB7v160006IS2_JZN10ThreadPoolC1EmEUlvE_EvEEvRS3_PT_DpOT0_
Ltmp54:
	b	LBB57_1
LBB57_1:
	add	x0, sp, #40
	ldr	x8, [sp, #48]
	add	x8, x8, #8
	str	x8, [sp, #48]
	bl	__ZNSt3__16vectorINS_6threadENS_9allocatorIS1_EEE21_ConstructTransactionD1B7v160006Ev
	ldp	x29, x30, [sp, #80]             ; 16-byte Folded Reload
	add	sp, sp, #96
	ret
LBB57_2:
Ltmp55:
	str	x0, [sp, #32]
	mov	x8, x1
	str	w8, [sp, #28]
	add	x0, sp, #40
	bl	__ZNSt3__16vectorINS_6threadENS_9allocatorIS1_EEE21_ConstructTransactionD1B7v160006Ev
	b	LBB57_3
LBB57_3:
	ldr	x0, [sp, #32]
	bl	__Unwind_Resume
Lfunc_end9:
	.cfi_endproc
	.section	__TEXT,__gcc_except_tab
	.p2align	2, 0x0
GCC_except_table57:
Lexception9:
	.byte	255                             ; @LPStart Encoding = omit
	.byte	255                             ; @TType Encoding = omit
	.byte	1                               ; Call site Encoding = uleb128
	.uleb128 Lcst_end9-Lcst_begin9
Lcst_begin9:
	.uleb128 Lfunc_begin9-Lfunc_begin9      ; >> Call Site 1 <<
	.uleb128 Ltmp53-Lfunc_begin9            ;   Call between Lfunc_begin9 and Ltmp53
	.byte	0                               ;     has no landing pad
	.byte	0                               ;   On action: cleanup
	.uleb128 Ltmp53-Lfunc_begin9            ; >> Call Site 2 <<
	.uleb128 Ltmp54-Ltmp53                  ;   Call between Ltmp53 and Ltmp54
	.uleb128 Ltmp55-Lfunc_begin9            ;     jumps to Ltmp55
	.byte	0                               ;   On action: cleanup
	.uleb128 Ltmp54-Lfunc_begin9            ; >> Call Site 3 <<
	.uleb128 Lfunc_end9-Ltmp54              ;   Call between Ltmp54 and Lfunc_end9
	.byte	0                               ;     has no landing pad
	.byte	0                               ;   On action: cleanup
Lcst_end9:
	.p2align	2, 0x0
                                        ; -- End function
	.section	__TEXT,__text,regular,pure_instructions
	.globl	__ZNSt3__16vectorINS_6threadENS_9allocatorIS1_EEE24__emplace_back_slow_pathIJZN10ThreadPoolC1EmEUlvE_EEEvDpOT_ ; -- Begin function _ZNSt3__16vectorINS_6threadENS_9allocatorIS1_EEE24__emplace_back_slow_pathIJZN10ThreadPoolC1EmEUlvE_EEEvDpOT_
	.weak_definition	__ZNSt3__16vectorINS_6threadENS_9allocatorIS1_EEE24__emplace_back_slow_pathIJZN10ThreadPoolC1EmEUlvE_EEEvDpOT_
	.p2align	2
__ZNSt3__16vectorINS_6threadENS_9allocatorIS1_EEE24__emplace_back_slow_pathIJZN10ThreadPoolC1EmEUlvE_EEEvDpOT_: ; @_ZNSt3__16vectorINS_6threadENS_9allocatorIS1_EEE24__emplace_back_slow_pathIJZN10ThreadPoolC1EmEUlvE_EEEvDpOT_
Lfunc_begin10:
	.cfi_startproc
	.cfi_personality 155, ___gxx_personality_v0
	.cfi_lsda 16, Lexception10
; %bb.0:
	sub	sp, sp, #128
	.cfi_def_cfa_offset 128
	stp	x29, x30, [sp, #112]            ; 16-byte Folded Spill
	add	x29, sp, #112
	.cfi_def_cfa w29, 16
	.cfi_offset w30, -8
	.cfi_offset w29, -16
	stur	x0, [x29, #-8]
	stur	x1, [x29, #-16]
	ldur	x0, [x29, #-8]
	str	x0, [sp, #8]                    ; 8-byte Folded Spill
	bl	__ZNSt3__16vectorINS_6threadENS_9allocatorIS1_EEE7__allocB7v160006Ev
	mov	x8, x0
	ldr	x0, [sp, #8]                    ; 8-byte Folded Reload
	stur	x8, [x29, #-24]
	bl	__ZNKSt3__16vectorINS_6threadENS_9allocatorIS1_EEE4sizeB7v160006Ev
	mov	x8, x0
	ldr	x0, [sp, #8]                    ; 8-byte Folded Reload
	add	x1, x8, #1
	bl	__ZNKSt3__16vectorINS_6threadENS_9allocatorIS1_EEE11__recommendB7v160006Em
	mov	x1, x0
	ldr	x0, [sp, #8]                    ; 8-byte Folded Reload
	str	x1, [sp, #16]                   ; 8-byte Folded Spill
	bl	__ZNKSt3__16vectorINS_6threadENS_9allocatorIS1_EEE4sizeB7v160006Ev
	ldr	x1, [sp, #16]                   ; 8-byte Folded Reload
	mov	x2, x0
	ldur	x3, [x29, #-24]
	add	x0, sp, #48
	bl	__ZNSt3__114__split_bufferINS_6threadERNS_9allocatorIS1_EEEC1EmmS4_
	ldur	x8, [x29, #-24]
	str	x8, [sp, #24]                   ; 8-byte Folded Spill
	ldr	x0, [sp, #64]
	bl	__ZNSt3__112__to_addressB7v160006INS_6threadEEEPT_S3_
	mov	x1, x0
	ldr	x0, [sp, #24]                   ; 8-byte Folded Reload
	ldur	x2, [x29, #-16]
Ltmp56:
	bl	__ZNSt3__116allocator_traitsINS_9allocatorINS_6threadEEEE9constructB7v160006IS2_JZN10ThreadPoolC1EmEUlvE_EvEEvRS3_PT_DpOT0_
Ltmp57:
	b	LBB58_1
LBB58_1:
	ldr	x0, [sp, #8]                    ; 8-byte Folded Reload
	add	x1, sp, #48
	ldr	x8, [sp, #64]
	add	x8, x8, #8
	str	x8, [sp, #64]
Ltmp58:
	bl	__ZNSt3__16vectorINS_6threadENS_9allocatorIS1_EEE26__swap_out_circular_bufferERNS_14__split_bufferIS1_RS3_EE
Ltmp59:
	b	LBB58_2
LBB58_2:
	add	x0, sp, #48
	bl	__ZNSt3__114__split_bufferINS_6threadERNS_9allocatorIS1_EEED1Ev
	ldp	x29, x30, [sp, #112]            ; 16-byte Folded Reload
	add	sp, sp, #128
	ret
LBB58_3:
Ltmp60:
	str	x0, [sp, #40]
	mov	x8, x1
	str	w8, [sp, #36]
	add	x0, sp, #48
	bl	__ZNSt3__114__split_bufferINS_6threadERNS_9allocatorIS1_EEED1Ev
	b	LBB58_4
LBB58_4:
	ldr	x0, [sp, #40]
	bl	__Unwind_Resume
Lfunc_end10:
	.cfi_endproc
	.section	__TEXT,__gcc_except_tab
	.p2align	2, 0x0
GCC_except_table58:
Lexception10:
	.byte	255                             ; @LPStart Encoding = omit
	.byte	255                             ; @TType Encoding = omit
	.byte	1                               ; Call site Encoding = uleb128
	.uleb128 Lcst_end10-Lcst_begin10
Lcst_begin10:
	.uleb128 Lfunc_begin10-Lfunc_begin10    ; >> Call Site 1 <<
	.uleb128 Ltmp56-Lfunc_begin10           ;   Call between Lfunc_begin10 and Ltmp56
	.byte	0                               ;     has no landing pad
	.byte	0                               ;   On action: cleanup
	.uleb128 Ltmp56-Lfunc_begin10           ; >> Call Site 2 <<
	.uleb128 Ltmp59-Ltmp56                  ;   Call between Ltmp56 and Ltmp59
	.uleb128 Ltmp60-Lfunc_begin10           ;     jumps to Ltmp60
	.byte	0                               ;   On action: cleanup
	.uleb128 Ltmp59-Lfunc_begin10           ; >> Call Site 3 <<
	.uleb128 Lfunc_end10-Ltmp59             ;   Call between Ltmp59 and Lfunc_end10
	.byte	0                               ;     has no landing pad
	.byte	0                               ;   On action: cleanup
Lcst_end10:
	.p2align	2, 0x0
                                        ; -- End function
	.section	__TEXT,__text,regular,pure_instructions
	.private_extern	__ZNSt3__16vectorINS_6threadENS_9allocatorIS1_EEE4backB7v160006Ev ; -- Begin function _ZNSt3__16vectorINS_6threadENS_9allocatorIS1_EEE4backB7v160006Ev
	.globl	__ZNSt3__16vectorINS_6threadENS_9allocatorIS1_EEE4backB7v160006Ev
	.weak_definition	__ZNSt3__16vectorINS_6threadENS_9allocatorIS1_EEE4backB7v160006Ev
	.p2align	2
__ZNSt3__16vectorINS_6threadENS_9allocatorIS1_EEE4backB7v160006Ev: ; @_ZNSt3__16vectorINS_6threadENS_9allocatorIS1_EEE4backB7v160006Ev
	.cfi_startproc
; %bb.0:
	sub	sp, sp, #16
	.cfi_def_cfa_offset 16
	str	x0, [sp, #8]
	ldr	x8, [sp, #8]
	ldr	x8, [x8, #8]
	subs	x0, x8, #8
	add	sp, sp, #16
	ret
	.cfi_endproc
                                        ; -- End function
	.private_extern	__ZNSt3__117__compressed_pairIPNS_6threadENS_9allocatorIS1_EEE5firstB7v160006Ev ; -- Begin function _ZNSt3__117__compressed_pairIPNS_6threadENS_9allocatorIS1_EEE5firstB7v160006Ev
	.globl	__ZNSt3__117__compressed_pairIPNS_6threadENS_9allocatorIS1_EEE5firstB7v160006Ev
	.weak_definition	__ZNSt3__117__compressed_pairIPNS_6threadENS_9allocatorIS1_EEE5firstB7v160006Ev
	.p2align	2
__ZNSt3__117__compressed_pairIPNS_6threadENS_9allocatorIS1_EEE5firstB7v160006Ev: ; @_ZNSt3__117__compressed_pairIPNS_6threadENS_9allocatorIS1_EEE5firstB7v160006Ev
	.cfi_startproc
; %bb.0:
	sub	sp, sp, #32
	.cfi_def_cfa_offset 32
	stp	x29, x30, [sp, #16]             ; 16-byte Folded Spill
	add	x29, sp, #16
	.cfi_def_cfa w29, 16
	.cfi_offset w30, -8
	.cfi_offset w29, -16
	str	x0, [sp, #8]
	ldr	x0, [sp, #8]
	bl	__ZNSt3__122__compressed_pair_elemIPNS_6threadELi0ELb0EE5__getB7v160006Ev
	ldp	x29, x30, [sp, #16]             ; 16-byte Folded Reload
	add	sp, sp, #32
	ret
	.cfi_endproc
                                        ; -- End function
	.private_extern	__ZNSt3__122__compressed_pair_elemIPNS_6threadELi0ELb0EE5__getB7v160006Ev ; -- Begin function _ZNSt3__122__compressed_pair_elemIPNS_6threadELi0ELb0EE5__getB7v160006Ev
	.globl	__ZNSt3__122__compressed_pair_elemIPNS_6threadELi0ELb0EE5__getB7v160006Ev
	.weak_definition	__ZNSt3__122__compressed_pair_elemIPNS_6threadELi0ELb0EE5__getB7v160006Ev
	.p2align	2
__ZNSt3__122__compressed_pair_elemIPNS_6threadELi0ELb0EE5__getB7v160006Ev: ; @_ZNSt3__122__compressed_pair_elemIPNS_6threadELi0ELb0EE5__getB7v160006Ev
	.cfi_startproc
; %bb.0:
	sub	sp, sp, #16
	.cfi_def_cfa_offset 16
	str	x0, [sp, #8]
	ldr	x0, [sp, #8]
	add	sp, sp, #16
	ret
	.cfi_endproc
                                        ; -- End function
	.private_extern	__ZNSt3__16vectorINS_6threadENS_9allocatorIS1_EEE21_ConstructTransactionC1B7v160006ERS4_m ; -- Begin function _ZNSt3__16vectorINS_6threadENS_9allocatorIS1_EEE21_ConstructTransactionC1B7v160006ERS4_m
	.globl	__ZNSt3__16vectorINS_6threadENS_9allocatorIS1_EEE21_ConstructTransactionC1B7v160006ERS4_m
	.weak_def_can_be_hidden	__ZNSt3__16vectorINS_6threadENS_9allocatorIS1_EEE21_ConstructTransactionC1B7v160006ERS4_m
	.p2align	2
__ZNSt3__16vectorINS_6threadENS_9allocatorIS1_EEE21_ConstructTransactionC1B7v160006ERS4_m: ; @_ZNSt3__16vectorINS_6threadENS_9allocatorIS1_EEE21_ConstructTransactionC1B7v160006ERS4_m
	.cfi_startproc
; %bb.0:
	sub	sp, sp, #48
	.cfi_def_cfa_offset 48
	stp	x29, x30, [sp, #32]             ; 16-byte Folded Spill
	add	x29, sp, #32
	.cfi_def_cfa w29, 16
	.cfi_offset w30, -8
	.cfi_offset w29, -16
	stur	x0, [x29, #-8]
	str	x1, [sp, #16]
	str	x2, [sp, #8]
	ldur	x0, [x29, #-8]
	str	x0, [sp]                        ; 8-byte Folded Spill
	ldr	x1, [sp, #16]
	ldr	x2, [sp, #8]
	bl	__ZNSt3__16vectorINS_6threadENS_9allocatorIS1_EEE21_ConstructTransactionC2B7v160006ERS4_m
	ldr	x0, [sp]                        ; 8-byte Folded Reload
	ldp	x29, x30, [sp, #32]             ; 16-byte Folded Reload
	add	sp, sp, #48
	ret
	.cfi_endproc
                                        ; -- End function
	.globl	__ZNSt3__116allocator_traitsINS_9allocatorINS_6threadEEEE9constructB7v160006IS2_JZN10ThreadPoolC1EmEUlvE_EvEEvRS3_PT_DpOT0_ ; -- Begin function _ZNSt3__116allocator_traitsINS_9allocatorINS_6threadEEEE9constructB7v160006IS2_JZN10ThreadPoolC1EmEUlvE_EvEEvRS3_PT_DpOT0_
	.weak_definition	__ZNSt3__116allocator_traitsINS_9allocatorINS_6threadEEEE9constructB7v160006IS2_JZN10ThreadPoolC1EmEUlvE_EvEEvRS3_PT_DpOT0_
	.p2align	2
__ZNSt3__116allocator_traitsINS_9allocatorINS_6threadEEEE9constructB7v160006IS2_JZN10ThreadPoolC1EmEUlvE_EvEEvRS3_PT_DpOT0_: ; @_ZNSt3__116allocator_traitsINS_9allocatorINS_6threadEEEE9constructB7v160006IS2_JZN10ThreadPoolC1EmEUlvE_EvEEvRS3_PT_DpOT0_
	.cfi_startproc
; %bb.0:
	sub	sp, sp, #48
	.cfi_def_cfa_offset 48
	stp	x29, x30, [sp, #32]             ; 16-byte Folded Spill
	add	x29, sp, #32
	.cfi_def_cfa w29, 16
	.cfi_offset w30, -8
	.cfi_offset w29, -16
	stur	x0, [x29, #-8]
	str	x1, [sp, #16]
	str	x2, [sp, #8]
	ldur	x0, [x29, #-8]
	ldr	x1, [sp, #16]
	ldr	x2, [sp, #8]
	bl	__ZNSt3__19allocatorINS_6threadEE9constructB7v160006IS1_JZN10ThreadPoolC1EmEUlvE_EEEvPT_DpOT0_
	ldp	x29, x30, [sp, #32]             ; 16-byte Folded Reload
	add	sp, sp, #48
	ret
	.cfi_endproc
                                        ; -- End function
	.private_extern	__ZNSt3__16vectorINS_6threadENS_9allocatorIS1_EEE7__allocB7v160006Ev ; -- Begin function _ZNSt3__16vectorINS_6threadENS_9allocatorIS1_EEE7__allocB7v160006Ev
	.globl	__ZNSt3__16vectorINS_6threadENS_9allocatorIS1_EEE7__allocB7v160006Ev
	.weak_definition	__ZNSt3__16vectorINS_6threadENS_9allocatorIS1_EEE7__allocB7v160006Ev
	.p2align	2
__ZNSt3__16vectorINS_6threadENS_9allocatorIS1_EEE7__allocB7v160006Ev: ; @_ZNSt3__16vectorINS_6threadENS_9allocatorIS1_EEE7__allocB7v160006Ev
	.cfi_startproc
; %bb.0:
	sub	sp, sp, #32
	.cfi_def_cfa_offset 32
	stp	x29, x30, [sp, #16]             ; 16-byte Folded Spill
	add	x29, sp, #16
	.cfi_def_cfa w29, 16
	.cfi_offset w30, -8
	.cfi_offset w29, -16
	str	x0, [sp, #8]
	ldr	x8, [sp, #8]
	add	x0, x8, #16
	bl	__ZNSt3__117__compressed_pairIPNS_6threadENS_9allocatorIS1_EEE6secondB7v160006Ev
	ldp	x29, x30, [sp, #16]             ; 16-byte Folded Reload
	add	sp, sp, #32
	ret
	.cfi_endproc
                                        ; -- End function
	.private_extern	__ZNSt3__112__to_addressB7v160006INS_6threadEEEPT_S3_ ; -- Begin function _ZNSt3__112__to_addressB7v160006INS_6threadEEEPT_S3_
	.globl	__ZNSt3__112__to_addressB7v160006INS_6threadEEEPT_S3_
	.weak_definition	__ZNSt3__112__to_addressB7v160006INS_6threadEEEPT_S3_
	.p2align	2
__ZNSt3__112__to_addressB7v160006INS_6threadEEEPT_S3_: ; @_ZNSt3__112__to_addressB7v160006INS_6threadEEEPT_S3_
	.cfi_startproc
; %bb.0:
	sub	sp, sp, #16
	.cfi_def_cfa_offset 16
	str	x0, [sp, #8]
	ldr	x0, [sp, #8]
	add	sp, sp, #16
	ret
	.cfi_endproc
                                        ; -- End function
	.private_extern	__ZNSt3__16vectorINS_6threadENS_9allocatorIS1_EEE21_ConstructTransactionD1B7v160006Ev ; -- Begin function _ZNSt3__16vectorINS_6threadENS_9allocatorIS1_EEE21_ConstructTransactionD1B7v160006Ev
	.globl	__ZNSt3__16vectorINS_6threadENS_9allocatorIS1_EEE21_ConstructTransactionD1B7v160006Ev
	.weak_def_can_be_hidden	__ZNSt3__16vectorINS_6threadENS_9allocatorIS1_EEE21_ConstructTransactionD1B7v160006Ev
	.p2align	2
__ZNSt3__16vectorINS_6threadENS_9allocatorIS1_EEE21_ConstructTransactionD1B7v160006Ev: ; @_ZNSt3__16vectorINS_6threadENS_9allocatorIS1_EEE21_ConstructTransactionD1B7v160006Ev
	.cfi_startproc
; %bb.0:
	sub	sp, sp, #32
	.cfi_def_cfa_offset 32
	stp	x29, x30, [sp, #16]             ; 16-byte Folded Spill
	add	x29, sp, #16
	.cfi_def_cfa w29, 16
	.cfi_offset w30, -8
	.cfi_offset w29, -16
	str	x0, [sp, #8]
	ldr	x0, [sp, #8]
	str	x0, [sp]                        ; 8-byte Folded Spill
	bl	__ZNSt3__16vectorINS_6threadENS_9allocatorIS1_EEE21_ConstructTransactionD2B7v160006Ev
	ldr	x0, [sp]                        ; 8-byte Folded Reload
	ldp	x29, x30, [sp, #16]             ; 16-byte Folded Reload
	add	sp, sp, #32
	ret
	.cfi_endproc
                                        ; -- End function
	.private_extern	__ZNSt3__16vectorINS_6threadENS_9allocatorIS1_EEE21_ConstructTransactionC2B7v160006ERS4_m ; -- Begin function _ZNSt3__16vectorINS_6threadENS_9allocatorIS1_EEE21_ConstructTransactionC2B7v160006ERS4_m
	.globl	__ZNSt3__16vectorINS_6threadENS_9allocatorIS1_EEE21_ConstructTransactionC2B7v160006ERS4_m
	.weak_def_can_be_hidden	__ZNSt3__16vectorINS_6threadENS_9allocatorIS1_EEE21_ConstructTransactionC2B7v160006ERS4_m
	.p2align	2
__ZNSt3__16vectorINS_6threadENS_9allocatorIS1_EEE21_ConstructTransactionC2B7v160006ERS4_m: ; @_ZNSt3__16vectorINS_6threadENS_9allocatorIS1_EEE21_ConstructTransactionC2B7v160006ERS4_m
	.cfi_startproc
; %bb.0:
	sub	sp, sp, #32
	.cfi_def_cfa_offset 32
	str	x0, [sp, #24]
	str	x1, [sp, #16]
	str	x2, [sp, #8]
	ldr	x0, [sp, #24]
	ldr	x8, [sp, #16]
	str	x8, [x0]
	ldr	x8, [sp, #16]
	ldr	x8, [x8, #8]
	str	x8, [x0, #8]
	ldr	x8, [sp, #16]
	ldr	x8, [x8, #8]
	ldr	x9, [sp, #8]
	add	x8, x8, x9, lsl #3
	str	x8, [x0, #16]
	add	sp, sp, #32
	ret
	.cfi_endproc
                                        ; -- End function
	.globl	__ZNSt3__19allocatorINS_6threadEE9constructB7v160006IS1_JZN10ThreadPoolC1EmEUlvE_EEEvPT_DpOT0_ ; -- Begin function _ZNSt3__19allocatorINS_6threadEE9constructB7v160006IS1_JZN10ThreadPoolC1EmEUlvE_EEEvPT_DpOT0_
	.weak_definition	__ZNSt3__19allocatorINS_6threadEE9constructB7v160006IS1_JZN10ThreadPoolC1EmEUlvE_EEEvPT_DpOT0_
	.p2align	2
__ZNSt3__19allocatorINS_6threadEE9constructB7v160006IS1_JZN10ThreadPoolC1EmEUlvE_EEEvPT_DpOT0_: ; @_ZNSt3__19allocatorINS_6threadEE9constructB7v160006IS1_JZN10ThreadPoolC1EmEUlvE_EEEvPT_DpOT0_
	.cfi_startproc
; %bb.0:
	sub	sp, sp, #48
	.cfi_def_cfa_offset 48
	stp	x29, x30, [sp, #32]             ; 16-byte Folded Spill
	add	x29, sp, #32
	.cfi_def_cfa w29, 16
	.cfi_offset w30, -8
	.cfi_offset w29, -16
	stur	x0, [x29, #-8]
	str	x1, [sp, #16]
	str	x2, [sp, #8]
	ldr	x0, [sp, #16]
	ldr	x1, [sp, #8]
	bl	__ZNSt3__16threadC1IZN10ThreadPoolC1EmEUlvE_JEvEEOT_DpOT0_
	ldp	x29, x30, [sp, #32]             ; 16-byte Folded Reload
	add	sp, sp, #48
	ret
	.cfi_endproc
                                        ; -- End function
	.private_extern	__ZNSt3__16threadC1IZN10ThreadPoolC1EmEUlvE_JEvEEOT_DpOT0_ ; -- Begin function _ZNSt3__16threadC1IZN10ThreadPoolC1EmEUlvE_JEvEEOT_DpOT0_
	.globl	__ZNSt3__16threadC1IZN10ThreadPoolC1EmEUlvE_JEvEEOT_DpOT0_
	.weak_def_can_be_hidden	__ZNSt3__16threadC1IZN10ThreadPoolC1EmEUlvE_JEvEEOT_DpOT0_
	.p2align	2
__ZNSt3__16threadC1IZN10ThreadPoolC1EmEUlvE_JEvEEOT_DpOT0_: ; @_ZNSt3__16threadC1IZN10ThreadPoolC1EmEUlvE_JEvEEOT_DpOT0_
	.cfi_startproc
; %bb.0:
	sub	sp, sp, #48
	.cfi_def_cfa_offset 48
	stp	x29, x30, [sp, #32]             ; 16-byte Folded Spill
	add	x29, sp, #32
	.cfi_def_cfa w29, 16
	.cfi_offset w30, -8
	.cfi_offset w29, -16
	stur	x0, [x29, #-8]
	str	x1, [sp, #16]
	ldur	x0, [x29, #-8]
	str	x0, [sp, #8]                    ; 8-byte Folded Spill
	ldr	x1, [sp, #16]
	bl	__ZNSt3__16threadC2IZN10ThreadPoolC1EmEUlvE_JEvEEOT_DpOT0_
	ldr	x0, [sp, #8]                    ; 8-byte Folded Reload
	ldp	x29, x30, [sp, #32]             ; 16-byte Folded Reload
	add	sp, sp, #48
	ret
	.cfi_endproc
                                        ; -- End function
	.private_extern	__ZNSt3__16threadC2IZN10ThreadPoolC1EmEUlvE_JEvEEOT_DpOT0_ ; -- Begin function _ZNSt3__16threadC2IZN10ThreadPoolC1EmEUlvE_JEvEEOT_DpOT0_
	.globl	__ZNSt3__16threadC2IZN10ThreadPoolC1EmEUlvE_JEvEEOT_DpOT0_
	.weak_def_can_be_hidden	__ZNSt3__16threadC2IZN10ThreadPoolC1EmEUlvE_JEvEEOT_DpOT0_
	.p2align	2
__ZNSt3__16threadC2IZN10ThreadPoolC1EmEUlvE_JEvEEOT_DpOT0_: ; @_ZNSt3__16threadC2IZN10ThreadPoolC1EmEUlvE_JEvEEOT_DpOT0_
Lfunc_begin11:
	.cfi_startproc
	.cfi_personality 155, ___gxx_personality_v0
	.cfi_lsda 16, Lexception11
; %bb.0:
	sub	sp, sp, #112
	.cfi_def_cfa_offset 112
	stp	x29, x30, [sp, #96]             ; 16-byte Folded Spill
	add	x29, sp, #96
	.cfi_def_cfa w29, 16
	.cfi_offset w30, -8
	.cfi_offset w29, -16
	stur	x0, [x29, #-8]
	stur	x1, [x29, #-16]
	ldur	x8, [x29, #-8]
	str	x8, [sp, #24]                   ; 8-byte Folded Spill
	mov	x0, #8
	bl	__Znwm
	str	x0, [sp, #32]                   ; 8-byte Folded Spill
Ltmp65:
	bl	__ZNSt3__115__thread_structC1Ev
Ltmp66:
	b	LBB70_1
LBB70_1:
	ldr	x1, [sp, #32]                   ; 8-byte Folded Reload
	sub	x0, x29, #24
	bl	__ZNSt3__110unique_ptrINS_15__thread_structENS_14default_deleteIS1_EEEC1B7v160006ILb1EvEEPS1_
Ltmp68:
	mov	x0, #16
	bl	__Znwm
	str	x0, [sp, #16]                   ; 8-byte Folded Spill
Ltmp69:
	b	LBB70_2
LBB70_2:
	ldr	x0, [sp, #16]                   ; 8-byte Folded Reload
	ldur	x2, [x29, #-16]
	sub	x1, x29, #24
	bl	__ZNSt3__15tupleIJNS_10unique_ptrINS_15__thread_structENS_14default_deleteIS2_EEEEZN10ThreadPoolC1EmEUlvE_EEC1B7v160006IJS5_S7_ELi0EEEDpOT_
	ldr	x1, [sp, #16]                   ; 8-byte Folded Reload
	add	x0, sp, #48
	str	x0, [sp]                        ; 8-byte Folded Spill
	bl	__ZNSt3__110unique_ptrINS_5tupleIJNS0_INS_15__thread_structENS_14default_deleteIS2_EEEEZN10ThreadPoolC1EmEUlvE_EEENS3_IS8_EEEC1B7v160006ILb1EvEEPS8_
	ldr	x0, [sp]                        ; 8-byte Folded Reload
	bl	__ZNKSt3__110unique_ptrINS_5tupleIJNS0_INS_15__thread_structENS_14default_deleteIS2_EEEEZN10ThreadPoolC1EmEUlvE_EEENS3_IS8_EEE3getB7v160006Ev
	mov	x2, x0
	ldr	x0, [sp, #24]                   ; 8-byte Folded Reload
Ltmp71:
	adrp	x1, __ZNSt3__114__thread_proxyB7v160006INS_5tupleIJNS_10unique_ptrINS_15__thread_structENS_14default_deleteIS3_EEEEZN10ThreadPoolC1EmEUlvE_EEEEEPvSA_@PAGE
	add	x1, x1, __ZNSt3__114__thread_proxyB7v160006INS_5tupleIJNS_10unique_ptrINS_15__thread_structENS_14default_deleteIS3_EEEEZN10ThreadPoolC1EmEUlvE_EEEEEPvSA_@PAGEOFF
	bl	__ZNSt3__122__libcpp_thread_createB7v160006EPP17_opaque_pthread_tPFPvS3_ES3_
	str	w0, [sp, #12]                   ; 4-byte Folded Spill
Ltmp72:
	b	LBB70_3
LBB70_3:
	ldr	w8, [sp, #12]                   ; 4-byte Folded Reload
	str	w8, [sp, #44]
	ldr	w8, [sp, #44]
	subs	w8, w8, #0
	cset	w8, ne
	tbnz	w8, #0, LBB70_8
	b	LBB70_4
LBB70_4:
	add	x0, sp, #48
	bl	__ZNSt3__110unique_ptrINS_5tupleIJNS0_INS_15__thread_structENS_14default_deleteIS2_EEEEZN10ThreadPoolC1EmEUlvE_EEENS3_IS8_EEE7releaseB7v160006Ev
	b	LBB70_10
LBB70_5:
Ltmp67:
	mov	x8, x0
	ldr	x0, [sp, #32]                   ; 8-byte Folded Reload
	stur	x8, [x29, #-32]
	mov	x8, x1
	stur	w8, [x29, #-36]
	bl	__ZdlPv
	b	LBB70_12
LBB70_6:
Ltmp70:
	stur	x0, [x29, #-32]
	mov	x8, x1
	stur	w8, [x29, #-36]
	b	LBB70_11
LBB70_7:
Ltmp75:
	stur	x0, [x29, #-32]
	mov	x8, x1
	stur	w8, [x29, #-36]
	add	x0, sp, #48
	bl	__ZNSt3__110unique_ptrINS_5tupleIJNS0_INS_15__thread_structENS_14default_deleteIS2_EEEEZN10ThreadPoolC1EmEUlvE_EEENS3_IS8_EEED1B7v160006Ev
	b	LBB70_11
LBB70_8:
	ldr	w0, [sp, #44]
Ltmp73:
	adrp	x1, l_.str.2@PAGE
	add	x1, x1, l_.str.2@PAGEOFF
	bl	__ZNSt3__120__throw_system_errorEiPKc
Ltmp74:
	b	LBB70_9
LBB70_9:
	brk	#0x1
LBB70_10:
	add	x0, sp, #48
	bl	__ZNSt3__110unique_ptrINS_5tupleIJNS0_INS_15__thread_structENS_14default_deleteIS2_EEEEZN10ThreadPoolC1EmEUlvE_EEENS3_IS8_EEED1B7v160006Ev
	sub	x0, x29, #24
	bl	__ZNSt3__110unique_ptrINS_15__thread_structENS_14default_deleteIS1_EEED1B7v160006Ev
	ldr	x0, [sp, #24]                   ; 8-byte Folded Reload
	ldp	x29, x30, [sp, #96]             ; 16-byte Folded Reload
	add	sp, sp, #112
	ret
LBB70_11:
	sub	x0, x29, #24
	bl	__ZNSt3__110unique_ptrINS_15__thread_structENS_14default_deleteIS1_EEED1B7v160006Ev
	b	LBB70_12
LBB70_12:
	ldur	x0, [x29, #-32]
	bl	__Unwind_Resume
Lfunc_end11:
	.cfi_endproc
	.section	__TEXT,__gcc_except_tab
	.p2align	2, 0x0
GCC_except_table70:
Lexception11:
	.byte	255                             ; @LPStart Encoding = omit
	.byte	255                             ; @TType Encoding = omit
	.byte	1                               ; Call site Encoding = uleb128
	.uleb128 Lcst_end11-Lcst_begin11
Lcst_begin11:
	.uleb128 Lfunc_begin11-Lfunc_begin11    ; >> Call Site 1 <<
	.uleb128 Ltmp65-Lfunc_begin11           ;   Call between Lfunc_begin11 and Ltmp65
	.byte	0                               ;     has no landing pad
	.byte	0                               ;   On action: cleanup
	.uleb128 Ltmp65-Lfunc_begin11           ; >> Call Site 2 <<
	.uleb128 Ltmp66-Ltmp65                  ;   Call between Ltmp65 and Ltmp66
	.uleb128 Ltmp67-Lfunc_begin11           ;     jumps to Ltmp67
	.byte	0                               ;   On action: cleanup
	.uleb128 Ltmp68-Lfunc_begin11           ; >> Call Site 3 <<
	.uleb128 Ltmp69-Ltmp68                  ;   Call between Ltmp68 and Ltmp69
	.uleb128 Ltmp70-Lfunc_begin11           ;     jumps to Ltmp70
	.byte	0                               ;   On action: cleanup
	.uleb128 Ltmp71-Lfunc_begin11           ; >> Call Site 4 <<
	.uleb128 Ltmp74-Ltmp71                  ;   Call between Ltmp71 and Ltmp74
	.uleb128 Ltmp75-Lfunc_begin11           ;     jumps to Ltmp75
	.byte	0                               ;   On action: cleanup
	.uleb128 Ltmp74-Lfunc_begin11           ; >> Call Site 5 <<
	.uleb128 Lfunc_end11-Ltmp74             ;   Call between Ltmp74 and Lfunc_end11
	.byte	0                               ;     has no landing pad
	.byte	0                               ;   On action: cleanup
Lcst_end11:
	.p2align	2, 0x0
                                        ; -- End function
	.section	__TEXT,__text,regular,pure_instructions
	.globl	__ZNSt3__110unique_ptrINS_15__thread_structENS_14default_deleteIS1_EEEC1B7v160006ILb1EvEEPS1_ ; -- Begin function _ZNSt3__110unique_ptrINS_15__thread_structENS_14default_deleteIS1_EEEC1B7v160006ILb1EvEEPS1_
	.weak_def_can_be_hidden	__ZNSt3__110unique_ptrINS_15__thread_structENS_14default_deleteIS1_EEEC1B7v160006ILb1EvEEPS1_
	.p2align	2
__ZNSt3__110unique_ptrINS_15__thread_structENS_14default_deleteIS1_EEEC1B7v160006ILb1EvEEPS1_: ; @_ZNSt3__110unique_ptrINS_15__thread_structENS_14default_deleteIS1_EEEC1B7v160006ILb1EvEEPS1_
	.cfi_startproc
; %bb.0:
	sub	sp, sp, #48
	.cfi_def_cfa_offset 48
	stp	x29, x30, [sp, #32]             ; 16-byte Folded Spill
	add	x29, sp, #32
	.cfi_def_cfa w29, 16
	.cfi_offset w30, -8
	.cfi_offset w29, -16
	stur	x0, [x29, #-8]
	str	x1, [sp, #16]
	ldur	x0, [x29, #-8]
	str	x0, [sp, #8]                    ; 8-byte Folded Spill
	ldr	x1, [sp, #16]
	bl	__ZNSt3__110unique_ptrINS_15__thread_structENS_14default_deleteIS1_EEEC2B7v160006ILb1EvEEPS1_
	ldr	x0, [sp, #8]                    ; 8-byte Folded Reload
	ldp	x29, x30, [sp, #32]             ; 16-byte Folded Reload
	add	sp, sp, #48
	ret
	.cfi_endproc
                                        ; -- End function
	.globl	__ZNSt3__15tupleIJNS_10unique_ptrINS_15__thread_structENS_14default_deleteIS2_EEEEZN10ThreadPoolC1EmEUlvE_EEC1B7v160006IJS5_S7_ELi0EEEDpOT_ ; -- Begin function _ZNSt3__15tupleIJNS_10unique_ptrINS_15__thread_structENS_14default_deleteIS2_EEEEZN10ThreadPoolC1EmEUlvE_EEC1B7v160006IJS5_S7_ELi0EEEDpOT_
	.weak_def_can_be_hidden	__ZNSt3__15tupleIJNS_10unique_ptrINS_15__thread_structENS_14default_deleteIS2_EEEEZN10ThreadPoolC1EmEUlvE_EEC1B7v160006IJS5_S7_ELi0EEEDpOT_
	.p2align	2
__ZNSt3__15tupleIJNS_10unique_ptrINS_15__thread_structENS_14default_deleteIS2_EEEEZN10ThreadPoolC1EmEUlvE_EEC1B7v160006IJS5_S7_ELi0EEEDpOT_: ; @_ZNSt3__15tupleIJNS_10unique_ptrINS_15__thread_structENS_14default_deleteIS2_EEEEZN10ThreadPoolC1EmEUlvE_EEC1B7v160006IJS5_S7_ELi0EEEDpOT_
	.cfi_startproc
; %bb.0:
	sub	sp, sp, #48
	.cfi_def_cfa_offset 48
	stp	x29, x30, [sp, #32]             ; 16-byte Folded Spill
	add	x29, sp, #32
	.cfi_def_cfa w29, 16
	.cfi_offset w30, -8
	.cfi_offset w29, -16
	stur	x0, [x29, #-8]
	str	x1, [sp, #16]
	str	x2, [sp, #8]
	ldur	x0, [x29, #-8]
	str	x0, [sp]                        ; 8-byte Folded Spill
	ldr	x1, [sp, #16]
	ldr	x2, [sp, #8]
	bl	__ZNSt3__15tupleIJNS_10unique_ptrINS_15__thread_structENS_14default_deleteIS2_EEEEZN10ThreadPoolC1EmEUlvE_EEC2B7v160006IJS5_S7_ELi0EEEDpOT_
	ldr	x0, [sp]                        ; 8-byte Folded Reload
	ldp	x29, x30, [sp, #32]             ; 16-byte Folded Reload
	add	sp, sp, #48
	ret
	.cfi_endproc
                                        ; -- End function
	.globl	__ZNSt3__110unique_ptrINS_5tupleIJNS0_INS_15__thread_structENS_14default_deleteIS2_EEEEZN10ThreadPoolC1EmEUlvE_EEENS3_IS8_EEEC1B7v160006ILb1EvEEPS8_ ; -- Begin function _ZNSt3__110unique_ptrINS_5tupleIJNS0_INS_15__thread_structENS_14default_deleteIS2_EEEEZN10ThreadPoolC1EmEUlvE_EEENS3_IS8_EEEC1B7v160006ILb1EvEEPS8_
	.weak_def_can_be_hidden	__ZNSt3__110unique_ptrINS_5tupleIJNS0_INS_15__thread_structENS_14default_deleteIS2_EEEEZN10ThreadPoolC1EmEUlvE_EEENS3_IS8_EEEC1B7v160006ILb1EvEEPS8_
	.p2align	2
__ZNSt3__110unique_ptrINS_5tupleIJNS0_INS_15__thread_structENS_14default_deleteIS2_EEEEZN10ThreadPoolC1EmEUlvE_EEENS3_IS8_EEEC1B7v160006ILb1EvEEPS8_: ; @_ZNSt3__110unique_ptrINS_5tupleIJNS0_INS_15__thread_structENS_14default_deleteIS2_EEEEZN10ThreadPoolC1EmEUlvE_EEENS3_IS8_EEEC1B7v160006ILb1EvEEPS8_
	.cfi_startproc
; %bb.0:
	sub	sp, sp, #48
	.cfi_def_cfa_offset 48
	stp	x29, x30, [sp, #32]             ; 16-byte Folded Spill
	add	x29, sp, #32
	.cfi_def_cfa w29, 16
	.cfi_offset w30, -8
	.cfi_offset w29, -16
	stur	x0, [x29, #-8]
	str	x1, [sp, #16]
	ldur	x0, [x29, #-8]
	str	x0, [sp, #8]                    ; 8-byte Folded Spill
	ldr	x1, [sp, #16]
	bl	__ZNSt3__110unique_ptrINS_5tupleIJNS0_INS_15__thread_structENS_14default_deleteIS2_EEEEZN10ThreadPoolC1EmEUlvE_EEENS3_IS8_EEEC2B7v160006ILb1EvEEPS8_
	ldr	x0, [sp, #8]                    ; 8-byte Folded Reload
	ldp	x29, x30, [sp, #32]             ; 16-byte Folded Reload
	add	sp, sp, #48
	ret
	.cfi_endproc
                                        ; -- End function
	.private_extern	__ZNSt3__122__libcpp_thread_createB7v160006EPP17_opaque_pthread_tPFPvS3_ES3_ ; -- Begin function _ZNSt3__122__libcpp_thread_createB7v160006EPP17_opaque_pthread_tPFPvS3_ES3_
	.globl	__ZNSt3__122__libcpp_thread_createB7v160006EPP17_opaque_pthread_tPFPvS3_ES3_
	.weak_definition	__ZNSt3__122__libcpp_thread_createB7v160006EPP17_opaque_pthread_tPFPvS3_ES3_
	.p2align	2
__ZNSt3__122__libcpp_thread_createB7v160006EPP17_opaque_pthread_tPFPvS3_ES3_: ; @_ZNSt3__122__libcpp_thread_createB7v160006EPP17_opaque_pthread_tPFPvS3_ES3_
	.cfi_startproc
; %bb.0:
	sub	sp, sp, #48
	.cfi_def_cfa_offset 48
	stp	x29, x30, [sp, #32]             ; 16-byte Folded Spill
	add	x29, sp, #32
	.cfi_def_cfa w29, 16
	.cfi_offset w30, -8
	.cfi_offset w29, -16
	stur	x0, [x29, #-8]
	str	x1, [sp, #16]
	str	x2, [sp, #8]
	ldur	x0, [x29, #-8]
	ldr	x2, [sp, #16]
	ldr	x3, [sp, #8]
	mov	x1, #0
	bl	_pthread_create
	ldp	x29, x30, [sp, #32]             ; 16-byte Folded Reload
	add	sp, sp, #48
	ret
	.cfi_endproc
                                        ; -- End function
	.private_extern	__ZNSt3__114__thread_proxyB7v160006INS_5tupleIJNS_10unique_ptrINS_15__thread_structENS_14default_deleteIS3_EEEEZN10ThreadPoolC1EmEUlvE_EEEEEPvSA_ ; -- Begin function _ZNSt3__114__thread_proxyB7v160006INS_5tupleIJNS_10unique_ptrINS_15__thread_structENS_14default_deleteIS3_EEEEZN10ThreadPoolC1EmEUlvE_EEEEEPvSA_
	.globl	__ZNSt3__114__thread_proxyB7v160006INS_5tupleIJNS_10unique_ptrINS_15__thread_structENS_14default_deleteIS3_EEEEZN10ThreadPoolC1EmEUlvE_EEEEEPvSA_
	.weak_definition	__ZNSt3__114__thread_proxyB7v160006INS_5tupleIJNS_10unique_ptrINS_15__thread_structENS_14default_deleteIS3_EEEEZN10ThreadPoolC1EmEUlvE_EEEEEPvSA_
	.p2align	2
__ZNSt3__114__thread_proxyB7v160006INS_5tupleIJNS_10unique_ptrINS_15__thread_structENS_14default_deleteIS3_EEEEZN10ThreadPoolC1EmEUlvE_EEEEEPvSA_: ; @_ZNSt3__114__thread_proxyB7v160006INS_5tupleIJNS_10unique_ptrINS_15__thread_structENS_14default_deleteIS3_EEEEZN10ThreadPoolC1EmEUlvE_EEEEEPvSA_
Lfunc_begin12:
	.cfi_startproc
	.cfi_personality 155, ___gxx_personality_v0
	.cfi_lsda 16, Lexception12
; %bb.0:
	sub	sp, sp, #64
	.cfi_def_cfa_offset 64
	stp	x29, x30, [sp, #48]             ; 16-byte Folded Spill
	add	x29, sp, #48
	.cfi_def_cfa w29, 16
	.cfi_offset w30, -8
	.cfi_offset w29, -16
	stur	x0, [x29, #-8]
	ldur	x1, [x29, #-8]
	sub	x0, x29, #16
	bl	__ZNSt3__110unique_ptrINS_5tupleIJNS0_INS_15__thread_structENS_14default_deleteIS2_EEEEZN10ThreadPoolC1EmEUlvE_EEENS3_IS8_EEEC1B7v160006ILb1EvEEPS8_
Ltmp76:
	bl	__ZNSt3__119__thread_local_dataEv
	str	x0, [sp, #8]                    ; 8-byte Folded Spill
Ltmp77:
	b	LBB75_1
LBB75_1:
	sub	x0, x29, #16
	bl	__ZNKSt3__110unique_ptrINS_5tupleIJNS0_INS_15__thread_structENS_14default_deleteIS2_EEEEZN10ThreadPoolC1EmEUlvE_EEENS3_IS8_EEE3getB7v160006Ev
	bl	__ZNSt3__13getB7v160006ILm0EJNS_10unique_ptrINS_15__thread_structENS_14default_deleteIS2_EEEEZN10ThreadPoolC1EmEUlvE_EEERNS_13tuple_elementIXT_ENS_5tupleIJDpT0_EEEE4typeERSC_
	bl	__ZNSt3__110unique_ptrINS_15__thread_structENS_14default_deleteIS1_EEE7releaseB7v160006Ev
	mov	x1, x0
	ldr	x0, [sp, #8]                    ; 8-byte Folded Reload
Ltmp78:
	bl	__ZNSt3__121__thread_specific_ptrINS_15__thread_structEE11set_pointerEPS1_
Ltmp79:
	b	LBB75_2
LBB75_2:
	sub	x0, x29, #16
	bl	__ZNKSt3__110unique_ptrINS_5tupleIJNS0_INS_15__thread_structENS_14default_deleteIS2_EEEEZN10ThreadPoolC1EmEUlvE_EEENS3_IS8_EEE3getB7v160006Ev
Ltmp80:
	bl	__ZNSt3__116__thread_executeB7v160006INS_10unique_ptrINS_15__thread_structENS_14default_deleteIS2_EEEEZN10ThreadPoolC1EmEUlvE_JEJEEEvRNS_5tupleIJT_T0_DpT1_EEENS_15__tuple_indicesIJXspT2_EEEE
Ltmp81:
	b	LBB75_3
LBB75_3:
	sub	x0, x29, #16
	bl	__ZNSt3__110unique_ptrINS_5tupleIJNS0_INS_15__thread_structENS_14default_deleteIS2_EEEEZN10ThreadPoolC1EmEUlvE_EEENS3_IS8_EEED1B7v160006Ev
	mov	x0, #0
	ldp	x29, x30, [sp, #48]             ; 16-byte Folded Reload
	add	sp, sp, #64
	ret
LBB75_4:
Ltmp82:
	str	x0, [sp, #24]
	mov	x8, x1
	str	w8, [sp, #20]
	sub	x0, x29, #16
	bl	__ZNSt3__110unique_ptrINS_5tupleIJNS0_INS_15__thread_structENS_14default_deleteIS2_EEEEZN10ThreadPoolC1EmEUlvE_EEENS3_IS8_EEED1B7v160006Ev
	b	LBB75_5
LBB75_5:
	ldr	x0, [sp, #24]
	bl	__Unwind_Resume
Lfunc_end12:
	.cfi_endproc
	.section	__TEXT,__gcc_except_tab
	.p2align	2, 0x0
GCC_except_table75:
Lexception12:
	.byte	255                             ; @LPStart Encoding = omit
	.byte	255                             ; @TType Encoding = omit
	.byte	1                               ; Call site Encoding = uleb128
	.uleb128 Lcst_end12-Lcst_begin12
Lcst_begin12:
	.uleb128 Ltmp76-Lfunc_begin12           ; >> Call Site 1 <<
	.uleb128 Ltmp81-Ltmp76                  ;   Call between Ltmp76 and Ltmp81
	.uleb128 Ltmp82-Lfunc_begin12           ;     jumps to Ltmp82
	.byte	0                               ;   On action: cleanup
	.uleb128 Ltmp81-Lfunc_begin12           ; >> Call Site 2 <<
	.uleb128 Lfunc_end12-Ltmp81             ;   Call between Ltmp81 and Lfunc_end12
	.byte	0                               ;     has no landing pad
	.byte	0                               ;   On action: cleanup
Lcst_end12:
	.p2align	2, 0x0
                                        ; -- End function
	.section	__TEXT,__text,regular,pure_instructions
	.private_extern	__ZNKSt3__110unique_ptrINS_5tupleIJNS0_INS_15__thread_structENS_14default_deleteIS2_EEEEZN10ThreadPoolC1EmEUlvE_EEENS3_IS8_EEE3getB7v160006Ev ; -- Begin function _ZNKSt3__110unique_ptrINS_5tupleIJNS0_INS_15__thread_structENS_14default_deleteIS2_EEEEZN10ThreadPoolC1EmEUlvE_EEENS3_IS8_EEE3getB7v160006Ev
	.globl	__ZNKSt3__110unique_ptrINS_5tupleIJNS0_INS_15__thread_structENS_14default_deleteIS2_EEEEZN10ThreadPoolC1EmEUlvE_EEENS3_IS8_EEE3getB7v160006Ev
	.weak_definition	__ZNKSt3__110unique_ptrINS_5tupleIJNS0_INS_15__thread_structENS_14default_deleteIS2_EEEEZN10ThreadPoolC1EmEUlvE_EEENS3_IS8_EEE3getB7v160006Ev
	.p2align	2
__ZNKSt3__110unique_ptrINS_5tupleIJNS0_INS_15__thread_structENS_14default_deleteIS2_EEEEZN10ThreadPoolC1EmEUlvE_EEENS3_IS8_EEE3getB7v160006Ev: ; @_ZNKSt3__110unique_ptrINS_5tupleIJNS0_INS_15__thread_structENS_14default_deleteIS2_EEEEZN10ThreadPoolC1EmEUlvE_EEENS3_IS8_EEE3getB7v160006Ev
	.cfi_startproc
; %bb.0:
	sub	sp, sp, #32
	.cfi_def_cfa_offset 32
	stp	x29, x30, [sp, #16]             ; 16-byte Folded Spill
	add	x29, sp, #16
	.cfi_def_cfa w29, 16
	.cfi_offset w30, -8
	.cfi_offset w29, -16
	str	x0, [sp, #8]
	ldr	x0, [sp, #8]
	bl	__ZNKSt3__117__compressed_pairIPNS_5tupleIJNS_10unique_ptrINS_15__thread_structENS_14default_deleteIS3_EEEEZN10ThreadPoolC1EmEUlvE_EEENS4_IS9_EEE5firstB7v160006Ev
	ldr	x0, [x0]
	ldp	x29, x30, [sp, #16]             ; 16-byte Folded Reload
	add	sp, sp, #32
	ret
	.cfi_endproc
                                        ; -- End function
	.private_extern	__ZNSt3__110unique_ptrINS_5tupleIJNS0_INS_15__thread_structENS_14default_deleteIS2_EEEEZN10ThreadPoolC1EmEUlvE_EEENS3_IS8_EEE7releaseB7v160006Ev ; -- Begin function _ZNSt3__110unique_ptrINS_5tupleIJNS0_INS_15__thread_structENS_14default_deleteIS2_EEEEZN10ThreadPoolC1EmEUlvE_EEENS3_IS8_EEE7releaseB7v160006Ev
	.globl	__ZNSt3__110unique_ptrINS_5tupleIJNS0_INS_15__thread_structENS_14default_deleteIS2_EEEEZN10ThreadPoolC1EmEUlvE_EEENS3_IS8_EEE7releaseB7v160006Ev
	.weak_definition	__ZNSt3__110unique_ptrINS_5tupleIJNS0_INS_15__thread_structENS_14default_deleteIS2_EEEEZN10ThreadPoolC1EmEUlvE_EEENS3_IS8_EEE7releaseB7v160006Ev
	.p2align	2
__ZNSt3__110unique_ptrINS_5tupleIJNS0_INS_15__thread_structENS_14default_deleteIS2_EEEEZN10ThreadPoolC1EmEUlvE_EEENS3_IS8_EEE7releaseB7v160006Ev: ; @_ZNSt3__110unique_ptrINS_5tupleIJNS0_INS_15__thread_structENS_14default_deleteIS2_EEEEZN10ThreadPoolC1EmEUlvE_EEENS3_IS8_EEE7releaseB7v160006Ev
	.cfi_startproc
; %bb.0:
	sub	sp, sp, #48
	.cfi_def_cfa_offset 48
	stp	x29, x30, [sp, #32]             ; 16-byte Folded Spill
	add	x29, sp, #32
	.cfi_def_cfa w29, 16
	.cfi_offset w30, -8
	.cfi_offset w29, -16
	stur	x0, [x29, #-8]
	ldur	x0, [x29, #-8]
	str	x0, [sp, #8]                    ; 8-byte Folded Spill
	bl	__ZNSt3__117__compressed_pairIPNS_5tupleIJNS_10unique_ptrINS_15__thread_structENS_14default_deleteIS3_EEEEZN10ThreadPoolC1EmEUlvE_EEENS4_IS9_EEE5firstB7v160006Ev
	mov	x8, x0
	ldr	x0, [sp, #8]                    ; 8-byte Folded Reload
	ldr	x8, [x8]
	str	x8, [sp, #16]
	bl	__ZNSt3__117__compressed_pairIPNS_5tupleIJNS_10unique_ptrINS_15__thread_structENS_14default_deleteIS3_EEEEZN10ThreadPoolC1EmEUlvE_EEENS4_IS9_EEE5firstB7v160006Ev
                                        ; kill: def $x8 killed $xzr
	str	xzr, [x0]
	ldr	x0, [sp, #16]
	ldp	x29, x30, [sp, #32]             ; 16-byte Folded Reload
	add	sp, sp, #48
	ret
	.cfi_endproc
                                        ; -- End function
	.private_extern	__ZNSt3__110unique_ptrINS_5tupleIJNS0_INS_15__thread_structENS_14default_deleteIS2_EEEEZN10ThreadPoolC1EmEUlvE_EEENS3_IS8_EEED1B7v160006Ev ; -- Begin function _ZNSt3__110unique_ptrINS_5tupleIJNS0_INS_15__thread_structENS_14default_deleteIS2_EEEEZN10ThreadPoolC1EmEUlvE_EEENS3_IS8_EEED1B7v160006Ev
	.globl	__ZNSt3__110unique_ptrINS_5tupleIJNS0_INS_15__thread_structENS_14default_deleteIS2_EEEEZN10ThreadPoolC1EmEUlvE_EEENS3_IS8_EEED1B7v160006Ev
	.weak_def_can_be_hidden	__ZNSt3__110unique_ptrINS_5tupleIJNS0_INS_15__thread_structENS_14default_deleteIS2_EEEEZN10ThreadPoolC1EmEUlvE_EEENS3_IS8_EEED1B7v160006Ev
	.p2align	2
__ZNSt3__110unique_ptrINS_5tupleIJNS0_INS_15__thread_structENS_14default_deleteIS2_EEEEZN10ThreadPoolC1EmEUlvE_EEENS3_IS8_EEED1B7v160006Ev: ; @_ZNSt3__110unique_ptrINS_5tupleIJNS0_INS_15__thread_structENS_14default_deleteIS2_EEEEZN10ThreadPoolC1EmEUlvE_EEENS3_IS8_EEED1B7v160006Ev
	.cfi_startproc
; %bb.0:
	sub	sp, sp, #32
	.cfi_def_cfa_offset 32
	stp	x29, x30, [sp, #16]             ; 16-byte Folded Spill
	add	x29, sp, #16
	.cfi_def_cfa w29, 16
	.cfi_offset w30, -8
	.cfi_offset w29, -16
	str	x0, [sp, #8]
	ldr	x0, [sp, #8]
	str	x0, [sp]                        ; 8-byte Folded Spill
	bl	__ZNSt3__110unique_ptrINS_5tupleIJNS0_INS_15__thread_structENS_14default_deleteIS2_EEEEZN10ThreadPoolC1EmEUlvE_EEENS3_IS8_EEED2B7v160006Ev
	ldr	x0, [sp]                        ; 8-byte Folded Reload
	ldp	x29, x30, [sp, #16]             ; 16-byte Folded Reload
	add	sp, sp, #32
	ret
	.cfi_endproc
                                        ; -- End function
	.private_extern	__ZNSt3__110unique_ptrINS_15__thread_structENS_14default_deleteIS1_EEED1B7v160006Ev ; -- Begin function _ZNSt3__110unique_ptrINS_15__thread_structENS_14default_deleteIS1_EEED1B7v160006Ev
	.globl	__ZNSt3__110unique_ptrINS_15__thread_structENS_14default_deleteIS1_EEED1B7v160006Ev
	.weak_def_can_be_hidden	__ZNSt3__110unique_ptrINS_15__thread_structENS_14default_deleteIS1_EEED1B7v160006Ev
	.p2align	2
__ZNSt3__110unique_ptrINS_15__thread_structENS_14default_deleteIS1_EEED1B7v160006Ev: ; @_ZNSt3__110unique_ptrINS_15__thread_structENS_14default_deleteIS1_EEED1B7v160006Ev
	.cfi_startproc
; %bb.0:
	sub	sp, sp, #32
	.cfi_def_cfa_offset 32
	stp	x29, x30, [sp, #16]             ; 16-byte Folded Spill
	add	x29, sp, #16
	.cfi_def_cfa w29, 16
	.cfi_offset w30, -8
	.cfi_offset w29, -16
	str	x0, [sp, #8]
	ldr	x0, [sp, #8]
	str	x0, [sp]                        ; 8-byte Folded Spill
	bl	__ZNSt3__110unique_ptrINS_15__thread_structENS_14default_deleteIS1_EEED2B7v160006Ev
	ldr	x0, [sp]                        ; 8-byte Folded Reload
	ldp	x29, x30, [sp, #16]             ; 16-byte Folded Reload
	add	sp, sp, #32
	ret
	.cfi_endproc
                                        ; -- End function
	.globl	__ZNSt3__110unique_ptrINS_15__thread_structENS_14default_deleteIS1_EEEC2B7v160006ILb1EvEEPS1_ ; -- Begin function _ZNSt3__110unique_ptrINS_15__thread_structENS_14default_deleteIS1_EEEC2B7v160006ILb1EvEEPS1_
	.weak_def_can_be_hidden	__ZNSt3__110unique_ptrINS_15__thread_structENS_14default_deleteIS1_EEEC2B7v160006ILb1EvEEPS1_
	.p2align	2
__ZNSt3__110unique_ptrINS_15__thread_structENS_14default_deleteIS1_EEEC2B7v160006ILb1EvEEPS1_: ; @_ZNSt3__110unique_ptrINS_15__thread_structENS_14default_deleteIS1_EEEC2B7v160006ILb1EvEEPS1_
Lfunc_begin13:
	.cfi_startproc
	.cfi_personality 155, ___gxx_personality_v0
	.cfi_lsda 16, Lexception13
; %bb.0:
	sub	sp, sp, #48
	.cfi_def_cfa_offset 48
	stp	x29, x30, [sp, #32]             ; 16-byte Folded Spill
	add	x29, sp, #32
	.cfi_def_cfa w29, 16
	.cfi_offset w30, -8
	.cfi_offset w29, -16
	mov	x8, x1
	stur	x0, [x29, #-8]
	add	x1, sp, #16
	str	x8, [sp, #16]
	ldur	x0, [x29, #-8]
	str	x0, [sp]                        ; 8-byte Folded Spill
Ltmp83:
	add	x2, sp, #15
	bl	__ZNSt3__117__compressed_pairIPNS_15__thread_structENS_14default_deleteIS1_EEEC1B7v160006IRS2_NS_16__value_init_tagEEEOT_OT0_
Ltmp84:
	b	LBB80_1
LBB80_1:
	ldr	x0, [sp]                        ; 8-byte Folded Reload
	ldp	x29, x30, [sp, #32]             ; 16-byte Folded Reload
	add	sp, sp, #48
	ret
LBB80_2:
Ltmp85:
	bl	___clang_call_terminate
Lfunc_end13:
	.cfi_endproc
	.section	__TEXT,__gcc_except_tab
	.p2align	2, 0x0
GCC_except_table80:
Lexception13:
	.byte	255                             ; @LPStart Encoding = omit
	.byte	155                             ; @TType Encoding = indirect pcrel sdata4
	.uleb128 Lttbase4-Lttbaseref4
Lttbaseref4:
	.byte	1                               ; Call site Encoding = uleb128
	.uleb128 Lcst_end13-Lcst_begin13
Lcst_begin13:
	.uleb128 Ltmp83-Lfunc_begin13           ; >> Call Site 1 <<
	.uleb128 Ltmp84-Ltmp83                  ;   Call between Ltmp83 and Ltmp84
	.uleb128 Ltmp85-Lfunc_begin13           ;     jumps to Ltmp85
	.byte	1                               ;   On action: 1
Lcst_end13:
	.byte	1                               ; >> Action Record 1 <<
                                        ;   Catch TypeInfo 1
	.byte	0                               ;   No further actions
	.p2align	2, 0x0
                                        ; >> Catch TypeInfos <<
	.long	0                               ; TypeInfo 1
Lttbase4:
	.p2align	2, 0x0
                                        ; -- End function
	.section	__TEXT,__text,regular,pure_instructions
	.globl	__ZNSt3__117__compressed_pairIPNS_15__thread_structENS_14default_deleteIS1_EEEC1B7v160006IRS2_NS_16__value_init_tagEEEOT_OT0_ ; -- Begin function _ZNSt3__117__compressed_pairIPNS_15__thread_structENS_14default_deleteIS1_EEEC1B7v160006IRS2_NS_16__value_init_tagEEEOT_OT0_
	.weak_def_can_be_hidden	__ZNSt3__117__compressed_pairIPNS_15__thread_structENS_14default_deleteIS1_EEEC1B7v160006IRS2_NS_16__value_init_tagEEEOT_OT0_
	.p2align	2
__ZNSt3__117__compressed_pairIPNS_15__thread_structENS_14default_deleteIS1_EEEC1B7v160006IRS2_NS_16__value_init_tagEEEOT_OT0_: ; @_ZNSt3__117__compressed_pairIPNS_15__thread_structENS_14default_deleteIS1_EEEC1B7v160006IRS2_NS_16__value_init_tagEEEOT_OT0_
	.cfi_startproc
; %bb.0:
	sub	sp, sp, #48
	.cfi_def_cfa_offset 48
	stp	x29, x30, [sp, #32]             ; 16-byte Folded Spill
	add	x29, sp, #32
	.cfi_def_cfa w29, 16
	.cfi_offset w30, -8
	.cfi_offset w29, -16
	stur	x0, [x29, #-8]
	str	x1, [sp, #16]
	str	x2, [sp, #8]
	ldur	x0, [x29, #-8]
	str	x0, [sp]                        ; 8-byte Folded Spill
	ldr	x1, [sp, #16]
	ldr	x2, [sp, #8]
	bl	__ZNSt3__117__compressed_pairIPNS_15__thread_structENS_14default_deleteIS1_EEEC2B7v160006IRS2_NS_16__value_init_tagEEEOT_OT0_
	ldr	x0, [sp]                        ; 8-byte Folded Reload
	ldp	x29, x30, [sp, #32]             ; 16-byte Folded Reload
	add	sp, sp, #48
	ret
	.cfi_endproc
                                        ; -- End function
	.globl	__ZNSt3__117__compressed_pairIPNS_15__thread_structENS_14default_deleteIS1_EEEC2B7v160006IRS2_NS_16__value_init_tagEEEOT_OT0_ ; -- Begin function _ZNSt3__117__compressed_pairIPNS_15__thread_structENS_14default_deleteIS1_EEEC2B7v160006IRS2_NS_16__value_init_tagEEEOT_OT0_
	.weak_def_can_be_hidden	__ZNSt3__117__compressed_pairIPNS_15__thread_structENS_14default_deleteIS1_EEEC2B7v160006IRS2_NS_16__value_init_tagEEEOT_OT0_
	.p2align	2
__ZNSt3__117__compressed_pairIPNS_15__thread_structENS_14default_deleteIS1_EEEC2B7v160006IRS2_NS_16__value_init_tagEEEOT_OT0_: ; @_ZNSt3__117__compressed_pairIPNS_15__thread_structENS_14default_deleteIS1_EEEC2B7v160006IRS2_NS_16__value_init_tagEEEOT_OT0_
	.cfi_startproc
; %bb.0:
	sub	sp, sp, #64
	.cfi_def_cfa_offset 64
	stp	x29, x30, [sp, #48]             ; 16-byte Folded Spill
	add	x29, sp, #48
	.cfi_def_cfa w29, 16
	.cfi_offset w30, -8
	.cfi_offset w29, -16
	stur	x0, [x29, #-8]
	stur	x1, [x29, #-16]
	str	x2, [sp, #24]
	ldur	x0, [x29, #-8]
	str	x0, [sp, #8]                    ; 8-byte Folded Spill
	ldur	x1, [x29, #-16]
	bl	__ZNSt3__122__compressed_pair_elemIPNS_15__thread_structELi0ELb0EEC2B7v160006IRS2_vEEOT_
	ldr	x0, [sp, #8]                    ; 8-byte Folded Reload
	bl	__ZNSt3__122__compressed_pair_elemINS_14default_deleteINS_15__thread_structEEELi1ELb1EEC2B7v160006ENS_16__value_init_tagE
	ldr	x0, [sp, #8]                    ; 8-byte Folded Reload
	ldp	x29, x30, [sp, #48]             ; 16-byte Folded Reload
	add	sp, sp, #64
	ret
	.cfi_endproc
                                        ; -- End function
	.globl	__ZNSt3__122__compressed_pair_elemIPNS_15__thread_structELi0ELb0EEC2B7v160006IRS2_vEEOT_ ; -- Begin function _ZNSt3__122__compressed_pair_elemIPNS_15__thread_structELi0ELb0EEC2B7v160006IRS2_vEEOT_
	.weak_def_can_be_hidden	__ZNSt3__122__compressed_pair_elemIPNS_15__thread_structELi0ELb0EEC2B7v160006IRS2_vEEOT_
	.p2align	2
__ZNSt3__122__compressed_pair_elemIPNS_15__thread_structELi0ELb0EEC2B7v160006IRS2_vEEOT_: ; @_ZNSt3__122__compressed_pair_elemIPNS_15__thread_structELi0ELb0EEC2B7v160006IRS2_vEEOT_
	.cfi_startproc
; %bb.0:
	sub	sp, sp, #16
	.cfi_def_cfa_offset 16
	str	x0, [sp, #8]
	str	x1, [sp]
	ldr	x0, [sp, #8]
	ldr	x8, [sp]
	ldr	x8, [x8]
	str	x8, [x0]
	add	sp, sp, #16
	ret
	.cfi_endproc
                                        ; -- End function
	.private_extern	__ZNSt3__122__compressed_pair_elemINS_14default_deleteINS_15__thread_structEEELi1ELb1EEC2B7v160006ENS_16__value_init_tagE ; -- Begin function _ZNSt3__122__compressed_pair_elemINS_14default_deleteINS_15__thread_structEEELi1ELb1EEC2B7v160006ENS_16__value_init_tagE
	.globl	__ZNSt3__122__compressed_pair_elemINS_14default_deleteINS_15__thread_structEEELi1ELb1EEC2B7v160006ENS_16__value_init_tagE
	.weak_def_can_be_hidden	__ZNSt3__122__compressed_pair_elemINS_14default_deleteINS_15__thread_structEEELi1ELb1EEC2B7v160006ENS_16__value_init_tagE
	.p2align	2
__ZNSt3__122__compressed_pair_elemINS_14default_deleteINS_15__thread_structEEELi1ELb1EEC2B7v160006ENS_16__value_init_tagE: ; @_ZNSt3__122__compressed_pair_elemINS_14default_deleteINS_15__thread_structEEELi1ELb1EEC2B7v160006ENS_16__value_init_tagE
	.cfi_startproc
; %bb.0:
	sub	sp, sp, #16
	.cfi_def_cfa_offset 16
	str	x0, [sp]
	ldr	x0, [sp]
	add	sp, sp, #16
	ret
	.cfi_endproc
                                        ; -- End function
	.globl	__ZNSt3__15tupleIJNS_10unique_ptrINS_15__thread_structENS_14default_deleteIS2_EEEEZN10ThreadPoolC1EmEUlvE_EEC2B7v160006IJS5_S7_ELi0EEEDpOT_ ; -- Begin function _ZNSt3__15tupleIJNS_10unique_ptrINS_15__thread_structENS_14default_deleteIS2_EEEEZN10ThreadPoolC1EmEUlvE_EEC2B7v160006IJS5_S7_ELi0EEEDpOT_
	.weak_def_can_be_hidden	__ZNSt3__15tupleIJNS_10unique_ptrINS_15__thread_structENS_14default_deleteIS2_EEEEZN10ThreadPoolC1EmEUlvE_EEC2B7v160006IJS5_S7_ELi0EEEDpOT_
	.p2align	2
__ZNSt3__15tupleIJNS_10unique_ptrINS_15__thread_structENS_14default_deleteIS2_EEEEZN10ThreadPoolC1EmEUlvE_EEC2B7v160006IJS5_S7_ELi0EEEDpOT_: ; @_ZNSt3__15tupleIJNS_10unique_ptrINS_15__thread_structENS_14default_deleteIS2_EEEEZN10ThreadPoolC1EmEUlvE_EEC2B7v160006IJS5_S7_ELi0EEEDpOT_
	.cfi_startproc
; %bb.0:
	sub	sp, sp, #64
	.cfi_def_cfa_offset 64
	stp	x29, x30, [sp, #48]             ; 16-byte Folded Spill
	add	x29, sp, #48
	.cfi_def_cfa w29, 16
	.cfi_offset w30, -8
	.cfi_offset w29, -16
	stur	x0, [x29, #-8]
	stur	x1, [x29, #-16]
	str	x2, [sp, #24]
	ldur	x0, [x29, #-8]
	str	x0, [sp, #8]                    ; 8-byte Folded Spill
	ldur	x1, [x29, #-16]
	ldr	x2, [sp, #24]
	bl	__ZNSt3__112__tuple_implINS_15__tuple_indicesIJLm0ELm1EEEEJNS_10unique_ptrINS_15__thread_structENS_14default_deleteIS4_EEEEZN10ThreadPoolC1EmEUlvE_EEC1B7v160006IJLm0ELm1EEJS7_S9_EJEJEJS7_S9_EEENS1_IJXspT_EEEENS_13__tuple_typesIJDpT0_EEENS1_IJXspT1_EEEENSD_IJDpT2_EEEDpOT3_
	ldr	x0, [sp, #8]                    ; 8-byte Folded Reload
	ldp	x29, x30, [sp, #48]             ; 16-byte Folded Reload
	add	sp, sp, #64
	ret
	.cfi_endproc
                                        ; -- End function
	.globl	__ZNSt3__112__tuple_implINS_15__tuple_indicesIJLm0ELm1EEEEJNS_10unique_ptrINS_15__thread_structENS_14default_deleteIS4_EEEEZN10ThreadPoolC1EmEUlvE_EEC1B7v160006IJLm0ELm1EEJS7_S9_EJEJEJS7_S9_EEENS1_IJXspT_EEEENS_13__tuple_typesIJDpT0_EEENS1_IJXspT1_EEEENSD_IJDpT2_EEEDpOT3_ ; -- Begin function _ZNSt3__112__tuple_implINS_15__tuple_indicesIJLm0ELm1EEEEJNS_10unique_ptrINS_15__thread_structENS_14default_deleteIS4_EEEEZN10ThreadPoolC1EmEUlvE_EEC1B7v160006IJLm0ELm1EEJS7_S9_EJEJEJS7_S9_EEENS1_IJXspT_EEEENS_13__tuple_typesIJDpT0_EEENS1_IJXspT1_EEEENSD_IJDpT2_EEEDpOT3_
	.weak_def_can_be_hidden	__ZNSt3__112__tuple_implINS_15__tuple_indicesIJLm0ELm1EEEEJNS_10unique_ptrINS_15__thread_structENS_14default_deleteIS4_EEEEZN10ThreadPoolC1EmEUlvE_EEC1B7v160006IJLm0ELm1EEJS7_S9_EJEJEJS7_S9_EEENS1_IJXspT_EEEENS_13__tuple_typesIJDpT0_EEENS1_IJXspT1_EEEENSD_IJDpT2_EEEDpOT3_
	.p2align	2
__ZNSt3__112__tuple_implINS_15__tuple_indicesIJLm0ELm1EEEEJNS_10unique_ptrINS_15__thread_structENS_14default_deleteIS4_EEEEZN10ThreadPoolC1EmEUlvE_EEC1B7v160006IJLm0ELm1EEJS7_S9_EJEJEJS7_S9_EEENS1_IJXspT_EEEENS_13__tuple_typesIJDpT0_EEENS1_IJXspT1_EEEENSD_IJDpT2_EEEDpOT3_: ; @_ZNSt3__112__tuple_implINS_15__tuple_indicesIJLm0ELm1EEEEJNS_10unique_ptrINS_15__thread_structENS_14default_deleteIS4_EEEEZN10ThreadPoolC1EmEUlvE_EEC1B7v160006IJLm0ELm1EEJS7_S9_EJEJEJS7_S9_EEENS1_IJXspT_EEEENS_13__tuple_typesIJDpT0_EEENS1_IJXspT1_EEEENSD_IJDpT2_EEEDpOT3_
	.cfi_startproc
; %bb.0:
	sub	sp, sp, #64
	.cfi_def_cfa_offset 64
	stp	x29, x30, [sp, #48]             ; 16-byte Folded Spill
	add	x29, sp, #48
	.cfi_def_cfa w29, 16
	.cfi_offset w30, -8
	.cfi_offset w29, -16
	stur	x0, [x29, #-16]
	str	x1, [sp, #24]
	str	x2, [sp, #16]
	ldur	x0, [x29, #-16]
	str	x0, [sp, #8]                    ; 8-byte Folded Spill
	ldr	x1, [sp, #24]
	ldr	x2, [sp, #16]
	bl	__ZNSt3__112__tuple_implINS_15__tuple_indicesIJLm0ELm1EEEEJNS_10unique_ptrINS_15__thread_structENS_14default_deleteIS4_EEEEZN10ThreadPoolC1EmEUlvE_EEC2B7v160006IJLm0ELm1EEJS7_S9_EJEJEJS7_S9_EEENS1_IJXspT_EEEENS_13__tuple_typesIJDpT0_EEENS1_IJXspT1_EEEENSD_IJDpT2_EEEDpOT3_
	ldr	x0, [sp, #8]                    ; 8-byte Folded Reload
	ldp	x29, x30, [sp, #48]             ; 16-byte Folded Reload
	add	sp, sp, #64
	ret
	.cfi_endproc
                                        ; -- End function
	.globl	__ZNSt3__112__tuple_implINS_15__tuple_indicesIJLm0ELm1EEEEJNS_10unique_ptrINS_15__thread_structENS_14default_deleteIS4_EEEEZN10ThreadPoolC1EmEUlvE_EEC2B7v160006IJLm0ELm1EEJS7_S9_EJEJEJS7_S9_EEENS1_IJXspT_EEEENS_13__tuple_typesIJDpT0_EEENS1_IJXspT1_EEEENSD_IJDpT2_EEEDpOT3_ ; -- Begin function _ZNSt3__112__tuple_implINS_15__tuple_indicesIJLm0ELm1EEEEJNS_10unique_ptrINS_15__thread_structENS_14default_deleteIS4_EEEEZN10ThreadPoolC1EmEUlvE_EEC2B7v160006IJLm0ELm1EEJS7_S9_EJEJEJS7_S9_EEENS1_IJXspT_EEEENS_13__tuple_typesIJDpT0_EEENS1_IJXspT1_EEEENSD_IJDpT2_EEEDpOT3_
	.weak_def_can_be_hidden	__ZNSt3__112__tuple_implINS_15__tuple_indicesIJLm0ELm1EEEEJNS_10unique_ptrINS_15__thread_structENS_14default_deleteIS4_EEEEZN10ThreadPoolC1EmEUlvE_EEC2B7v160006IJLm0ELm1EEJS7_S9_EJEJEJS7_S9_EEENS1_IJXspT_EEEENS_13__tuple_typesIJDpT0_EEENS1_IJXspT1_EEEENSD_IJDpT2_EEEDpOT3_
	.p2align	2
__ZNSt3__112__tuple_implINS_15__tuple_indicesIJLm0ELm1EEEEJNS_10unique_ptrINS_15__thread_structENS_14default_deleteIS4_EEEEZN10ThreadPoolC1EmEUlvE_EEC2B7v160006IJLm0ELm1EEJS7_S9_EJEJEJS7_S9_EEENS1_IJXspT_EEEENS_13__tuple_typesIJDpT0_EEENS1_IJXspT1_EEEENSD_IJDpT2_EEEDpOT3_: ; @_ZNSt3__112__tuple_implINS_15__tuple_indicesIJLm0ELm1EEEEJNS_10unique_ptrINS_15__thread_structENS_14default_deleteIS4_EEEEZN10ThreadPoolC1EmEUlvE_EEC2B7v160006IJLm0ELm1EEJS7_S9_EJEJEJS7_S9_EEENS1_IJXspT_EEEENS_13__tuple_typesIJDpT0_EEENS1_IJXspT1_EEEENSD_IJDpT2_EEEDpOT3_
	.cfi_startproc
; %bb.0:
	sub	sp, sp, #64
	.cfi_def_cfa_offset 64
	stp	x29, x30, [sp, #48]             ; 16-byte Folded Spill
	add	x29, sp, #48
	.cfi_def_cfa w29, 16
	.cfi_offset w30, -8
	.cfi_offset w29, -16
	stur	x0, [x29, #-16]
	str	x1, [sp, #24]
	str	x2, [sp, #16]
	ldur	x0, [x29, #-16]
	str	x0, [sp, #8]                    ; 8-byte Folded Spill
	ldr	x1, [sp, #24]
	bl	__ZNSt3__112__tuple_leafILm0ENS_10unique_ptrINS_15__thread_structENS_14default_deleteIS2_EEEELb0EEC2B7v160006IS5_vEEOT_
	ldr	x8, [sp, #8]                    ; 8-byte Folded Reload
	ldr	x1, [sp, #16]
	add	x0, x8, #8
	bl	__ZNSt3__112__tuple_leafILm1EZN10ThreadPoolC1EmEUlvE_Lb0EEC2B7v160006IS2_vEEOT_
	ldr	x0, [sp, #8]                    ; 8-byte Folded Reload
	ldp	x29, x30, [sp, #48]             ; 16-byte Folded Reload
	add	sp, sp, #64
	ret
	.cfi_endproc
                                        ; -- End function
	.globl	__ZNSt3__112__tuple_leafILm0ENS_10unique_ptrINS_15__thread_structENS_14default_deleteIS2_EEEELb0EEC2B7v160006IS5_vEEOT_ ; -- Begin function _ZNSt3__112__tuple_leafILm0ENS_10unique_ptrINS_15__thread_structENS_14default_deleteIS2_EEEELb0EEC2B7v160006IS5_vEEOT_
	.weak_def_can_be_hidden	__ZNSt3__112__tuple_leafILm0ENS_10unique_ptrINS_15__thread_structENS_14default_deleteIS2_EEEELb0EEC2B7v160006IS5_vEEOT_
	.p2align	2
__ZNSt3__112__tuple_leafILm0ENS_10unique_ptrINS_15__thread_structENS_14default_deleteIS2_EEEELb0EEC2B7v160006IS5_vEEOT_: ; @_ZNSt3__112__tuple_leafILm0ENS_10unique_ptrINS_15__thread_structENS_14default_deleteIS2_EEEELb0EEC2B7v160006IS5_vEEOT_
	.cfi_startproc
; %bb.0:
	sub	sp, sp, #48
	.cfi_def_cfa_offset 48
	stp	x29, x30, [sp, #32]             ; 16-byte Folded Spill
	add	x29, sp, #32
	.cfi_def_cfa w29, 16
	.cfi_offset w30, -8
	.cfi_offset w29, -16
	stur	x0, [x29, #-8]
	str	x1, [sp, #16]
	ldur	x0, [x29, #-8]
	str	x0, [sp, #8]                    ; 8-byte Folded Spill
	ldr	x1, [sp, #16]
	bl	__ZNSt3__110unique_ptrINS_15__thread_structENS_14default_deleteIS1_EEEC1B7v160006EOS4_
	ldr	x0, [sp, #8]                    ; 8-byte Folded Reload
	ldp	x29, x30, [sp, #32]             ; 16-byte Folded Reload
	add	sp, sp, #48
	ret
	.cfi_endproc
                                        ; -- End function
	.globl	__ZNSt3__112__tuple_leafILm1EZN10ThreadPoolC1EmEUlvE_Lb0EEC2B7v160006IS2_vEEOT_ ; -- Begin function _ZNSt3__112__tuple_leafILm1EZN10ThreadPoolC1EmEUlvE_Lb0EEC2B7v160006IS2_vEEOT_
	.weak_def_can_be_hidden	__ZNSt3__112__tuple_leafILm1EZN10ThreadPoolC1EmEUlvE_Lb0EEC2B7v160006IS2_vEEOT_
	.p2align	2
__ZNSt3__112__tuple_leafILm1EZN10ThreadPoolC1EmEUlvE_Lb0EEC2B7v160006IS2_vEEOT_: ; @_ZNSt3__112__tuple_leafILm1EZN10ThreadPoolC1EmEUlvE_Lb0EEC2B7v160006IS2_vEEOT_
	.cfi_startproc
; %bb.0:
	sub	sp, sp, #16
	.cfi_def_cfa_offset 16
	str	x0, [sp, #8]
	str	x1, [sp]
	ldr	x0, [sp, #8]
	ldr	x8, [sp]
	ldr	x8, [x8]
	str	x8, [x0]
	add	sp, sp, #16
	ret
	.cfi_endproc
                                        ; -- End function
	.private_extern	__ZNSt3__110unique_ptrINS_15__thread_structENS_14default_deleteIS1_EEEC1B7v160006EOS4_ ; -- Begin function _ZNSt3__110unique_ptrINS_15__thread_structENS_14default_deleteIS1_EEEC1B7v160006EOS4_
	.globl	__ZNSt3__110unique_ptrINS_15__thread_structENS_14default_deleteIS1_EEEC1B7v160006EOS4_
	.weak_def_can_be_hidden	__ZNSt3__110unique_ptrINS_15__thread_structENS_14default_deleteIS1_EEEC1B7v160006EOS4_
	.p2align	2
__ZNSt3__110unique_ptrINS_15__thread_structENS_14default_deleteIS1_EEEC1B7v160006EOS4_: ; @_ZNSt3__110unique_ptrINS_15__thread_structENS_14default_deleteIS1_EEEC1B7v160006EOS4_
	.cfi_startproc
; %bb.0:
	sub	sp, sp, #48
	.cfi_def_cfa_offset 48
	stp	x29, x30, [sp, #32]             ; 16-byte Folded Spill
	add	x29, sp, #32
	.cfi_def_cfa w29, 16
	.cfi_offset w30, -8
	.cfi_offset w29, -16
	stur	x0, [x29, #-8]
	str	x1, [sp, #16]
	ldur	x0, [x29, #-8]
	str	x0, [sp, #8]                    ; 8-byte Folded Spill
	ldr	x1, [sp, #16]
	bl	__ZNSt3__110unique_ptrINS_15__thread_structENS_14default_deleteIS1_EEEC2B7v160006EOS4_
	ldr	x0, [sp, #8]                    ; 8-byte Folded Reload
	ldp	x29, x30, [sp, #32]             ; 16-byte Folded Reload
	add	sp, sp, #48
	ret
	.cfi_endproc
                                        ; -- End function
	.private_extern	__ZNSt3__110unique_ptrINS_15__thread_structENS_14default_deleteIS1_EEEC2B7v160006EOS4_ ; -- Begin function _ZNSt3__110unique_ptrINS_15__thread_structENS_14default_deleteIS1_EEEC2B7v160006EOS4_
	.globl	__ZNSt3__110unique_ptrINS_15__thread_structENS_14default_deleteIS1_EEEC2B7v160006EOS4_
	.weak_def_can_be_hidden	__ZNSt3__110unique_ptrINS_15__thread_structENS_14default_deleteIS1_EEEC2B7v160006EOS4_
	.p2align	2
__ZNSt3__110unique_ptrINS_15__thread_structENS_14default_deleteIS1_EEEC2B7v160006EOS4_: ; @_ZNSt3__110unique_ptrINS_15__thread_structENS_14default_deleteIS1_EEEC2B7v160006EOS4_
Lfunc_begin14:
	.cfi_startproc
	.cfi_personality 155, ___gxx_personality_v0
	.cfi_lsda 16, Lexception14
; %bb.0:
	sub	sp, sp, #64
	.cfi_def_cfa_offset 64
	stp	x29, x30, [sp, #48]             ; 16-byte Folded Spill
	add	x29, sp, #48
	.cfi_def_cfa w29, 16
	.cfi_offset w30, -8
	.cfi_offset w29, -16
	stur	x0, [x29, #-8]
	stur	x1, [x29, #-16]
	ldur	x8, [x29, #-8]
	str	x8, [sp, #16]                   ; 8-byte Folded Spill
	ldur	x0, [x29, #-16]
	bl	__ZNSt3__110unique_ptrINS_15__thread_structENS_14default_deleteIS1_EEE7releaseB7v160006Ev
	add	x8, sp, #24
	str	x8, [sp, #8]                    ; 8-byte Folded Spill
	str	x0, [sp, #24]
	ldur	x0, [x29, #-16]
	bl	__ZNSt3__110unique_ptrINS_15__thread_structENS_14default_deleteIS1_EEE11get_deleterB7v160006Ev
	ldr	x1, [sp, #8]                    ; 8-byte Folded Reload
	mov	x2, x0
	ldr	x0, [sp, #16]                   ; 8-byte Folded Reload
Ltmp89:
	bl	__ZNSt3__117__compressed_pairIPNS_15__thread_structENS_14default_deleteIS1_EEEC1B7v160006IS2_S4_EEOT_OT0_
Ltmp90:
	b	LBB91_1
LBB91_1:
	ldr	x0, [sp, #16]                   ; 8-byte Folded Reload
	ldp	x29, x30, [sp, #48]             ; 16-byte Folded Reload
	add	sp, sp, #64
	ret
LBB91_2:
Ltmp91:
	bl	___clang_call_terminate
Lfunc_end14:
	.cfi_endproc
	.section	__TEXT,__gcc_except_tab
	.p2align	2, 0x0
GCC_except_table91:
Lexception14:
	.byte	255                             ; @LPStart Encoding = omit
	.byte	155                             ; @TType Encoding = indirect pcrel sdata4
	.uleb128 Lttbase5-Lttbaseref5
Lttbaseref5:
	.byte	1                               ; Call site Encoding = uleb128
	.uleb128 Lcst_end14-Lcst_begin14
Lcst_begin14:
	.uleb128 Ltmp89-Lfunc_begin14           ; >> Call Site 1 <<
	.uleb128 Ltmp90-Ltmp89                  ;   Call between Ltmp89 and Ltmp90
	.uleb128 Ltmp91-Lfunc_begin14           ;     jumps to Ltmp91
	.byte	1                               ;   On action: 1
Lcst_end14:
	.byte	1                               ; >> Action Record 1 <<
                                        ;   Catch TypeInfo 1
	.byte	0                               ;   No further actions
	.p2align	2, 0x0
                                        ; >> Catch TypeInfos <<
	.long	0                               ; TypeInfo 1
Lttbase5:
	.p2align	2, 0x0
                                        ; -- End function
	.section	__TEXT,__text,regular,pure_instructions
	.private_extern	__ZNSt3__110unique_ptrINS_15__thread_structENS_14default_deleteIS1_EEE7releaseB7v160006Ev ; -- Begin function _ZNSt3__110unique_ptrINS_15__thread_structENS_14default_deleteIS1_EEE7releaseB7v160006Ev
	.globl	__ZNSt3__110unique_ptrINS_15__thread_structENS_14default_deleteIS1_EEE7releaseB7v160006Ev
	.weak_definition	__ZNSt3__110unique_ptrINS_15__thread_structENS_14default_deleteIS1_EEE7releaseB7v160006Ev
	.p2align	2
__ZNSt3__110unique_ptrINS_15__thread_structENS_14default_deleteIS1_EEE7releaseB7v160006Ev: ; @_ZNSt3__110unique_ptrINS_15__thread_structENS_14default_deleteIS1_EEE7releaseB7v160006Ev
	.cfi_startproc
; %bb.0:
	sub	sp, sp, #48
	.cfi_def_cfa_offset 48
	stp	x29, x30, [sp, #32]             ; 16-byte Folded Spill
	add	x29, sp, #32
	.cfi_def_cfa w29, 16
	.cfi_offset w30, -8
	.cfi_offset w29, -16
	stur	x0, [x29, #-8]
	ldur	x0, [x29, #-8]
	str	x0, [sp, #8]                    ; 8-byte Folded Spill
	bl	__ZNSt3__117__compressed_pairIPNS_15__thread_structENS_14default_deleteIS1_EEE5firstB7v160006Ev
	mov	x8, x0
	ldr	x0, [sp, #8]                    ; 8-byte Folded Reload
	ldr	x8, [x8]
	str	x8, [sp, #16]
	bl	__ZNSt3__117__compressed_pairIPNS_15__thread_structENS_14default_deleteIS1_EEE5firstB7v160006Ev
                                        ; kill: def $x8 killed $xzr
	str	xzr, [x0]
	ldr	x0, [sp, #16]
	ldp	x29, x30, [sp, #32]             ; 16-byte Folded Reload
	add	sp, sp, #48
	ret
	.cfi_endproc
                                        ; -- End function
	.private_extern	__ZNSt3__110unique_ptrINS_15__thread_structENS_14default_deleteIS1_EEE11get_deleterB7v160006Ev ; -- Begin function _ZNSt3__110unique_ptrINS_15__thread_structENS_14default_deleteIS1_EEE11get_deleterB7v160006Ev
	.globl	__ZNSt3__110unique_ptrINS_15__thread_structENS_14default_deleteIS1_EEE11get_deleterB7v160006Ev
	.weak_definition	__ZNSt3__110unique_ptrINS_15__thread_structENS_14default_deleteIS1_EEE11get_deleterB7v160006Ev
	.p2align	2
__ZNSt3__110unique_ptrINS_15__thread_structENS_14default_deleteIS1_EEE11get_deleterB7v160006Ev: ; @_ZNSt3__110unique_ptrINS_15__thread_structENS_14default_deleteIS1_EEE11get_deleterB7v160006Ev
	.cfi_startproc
; %bb.0:
	sub	sp, sp, #32
	.cfi_def_cfa_offset 32
	stp	x29, x30, [sp, #16]             ; 16-byte Folded Spill
	add	x29, sp, #16
	.cfi_def_cfa w29, 16
	.cfi_offset w30, -8
	.cfi_offset w29, -16
	str	x0, [sp, #8]
	ldr	x0, [sp, #8]
	bl	__ZNSt3__117__compressed_pairIPNS_15__thread_structENS_14default_deleteIS1_EEE6secondB7v160006Ev
	ldp	x29, x30, [sp, #16]             ; 16-byte Folded Reload
	add	sp, sp, #32
	ret
	.cfi_endproc
                                        ; -- End function
	.globl	__ZNSt3__117__compressed_pairIPNS_15__thread_structENS_14default_deleteIS1_EEEC1B7v160006IS2_S4_EEOT_OT0_ ; -- Begin function _ZNSt3__117__compressed_pairIPNS_15__thread_structENS_14default_deleteIS1_EEEC1B7v160006IS2_S4_EEOT_OT0_
	.weak_def_can_be_hidden	__ZNSt3__117__compressed_pairIPNS_15__thread_structENS_14default_deleteIS1_EEEC1B7v160006IS2_S4_EEOT_OT0_
	.p2align	2
__ZNSt3__117__compressed_pairIPNS_15__thread_structENS_14default_deleteIS1_EEEC1B7v160006IS2_S4_EEOT_OT0_: ; @_ZNSt3__117__compressed_pairIPNS_15__thread_structENS_14default_deleteIS1_EEEC1B7v160006IS2_S4_EEOT_OT0_
	.cfi_startproc
; %bb.0:
	sub	sp, sp, #48
	.cfi_def_cfa_offset 48
	stp	x29, x30, [sp, #32]             ; 16-byte Folded Spill
	add	x29, sp, #32
	.cfi_def_cfa w29, 16
	.cfi_offset w30, -8
	.cfi_offset w29, -16
	stur	x0, [x29, #-8]
	str	x1, [sp, #16]
	str	x2, [sp, #8]
	ldur	x0, [x29, #-8]
	str	x0, [sp]                        ; 8-byte Folded Spill
	ldr	x1, [sp, #16]
	ldr	x2, [sp, #8]
	bl	__ZNSt3__117__compressed_pairIPNS_15__thread_structENS_14default_deleteIS1_EEEC2B7v160006IS2_S4_EEOT_OT0_
	ldr	x0, [sp]                        ; 8-byte Folded Reload
	ldp	x29, x30, [sp, #32]             ; 16-byte Folded Reload
	add	sp, sp, #48
	ret
	.cfi_endproc
                                        ; -- End function
	.private_extern	__ZNSt3__117__compressed_pairIPNS_15__thread_structENS_14default_deleteIS1_EEE5firstB7v160006Ev ; -- Begin function _ZNSt3__117__compressed_pairIPNS_15__thread_structENS_14default_deleteIS1_EEE5firstB7v160006Ev
	.globl	__ZNSt3__117__compressed_pairIPNS_15__thread_structENS_14default_deleteIS1_EEE5firstB7v160006Ev
	.weak_definition	__ZNSt3__117__compressed_pairIPNS_15__thread_structENS_14default_deleteIS1_EEE5firstB7v160006Ev
	.p2align	2
__ZNSt3__117__compressed_pairIPNS_15__thread_structENS_14default_deleteIS1_EEE5firstB7v160006Ev: ; @_ZNSt3__117__compressed_pairIPNS_15__thread_structENS_14default_deleteIS1_EEE5firstB7v160006Ev
	.cfi_startproc
; %bb.0:
	sub	sp, sp, #32
	.cfi_def_cfa_offset 32
	stp	x29, x30, [sp, #16]             ; 16-byte Folded Spill
	add	x29, sp, #16
	.cfi_def_cfa w29, 16
	.cfi_offset w30, -8
	.cfi_offset w29, -16
	str	x0, [sp, #8]
	ldr	x0, [sp, #8]
	bl	__ZNSt3__122__compressed_pair_elemIPNS_15__thread_structELi0ELb0EE5__getB7v160006Ev
	ldp	x29, x30, [sp, #16]             ; 16-byte Folded Reload
	add	sp, sp, #32
	ret
	.cfi_endproc
                                        ; -- End function
	.private_extern	__ZNSt3__122__compressed_pair_elemIPNS_15__thread_structELi0ELb0EE5__getB7v160006Ev ; -- Begin function _ZNSt3__122__compressed_pair_elemIPNS_15__thread_structELi0ELb0EE5__getB7v160006Ev
	.globl	__ZNSt3__122__compressed_pair_elemIPNS_15__thread_structELi0ELb0EE5__getB7v160006Ev
	.weak_definition	__ZNSt3__122__compressed_pair_elemIPNS_15__thread_structELi0ELb0EE5__getB7v160006Ev
	.p2align	2
__ZNSt3__122__compressed_pair_elemIPNS_15__thread_structELi0ELb0EE5__getB7v160006Ev: ; @_ZNSt3__122__compressed_pair_elemIPNS_15__thread_structELi0ELb0EE5__getB7v160006Ev
	.cfi_startproc
; %bb.0:
	sub	sp, sp, #16
	.cfi_def_cfa_offset 16
	str	x0, [sp, #8]
	ldr	x0, [sp, #8]
	add	sp, sp, #16
	ret
	.cfi_endproc
                                        ; -- End function
	.private_extern	__ZNSt3__117__compressed_pairIPNS_15__thread_structENS_14default_deleteIS1_EEE6secondB7v160006Ev ; -- Begin function _ZNSt3__117__compressed_pairIPNS_15__thread_structENS_14default_deleteIS1_EEE6secondB7v160006Ev
	.globl	__ZNSt3__117__compressed_pairIPNS_15__thread_structENS_14default_deleteIS1_EEE6secondB7v160006Ev
	.weak_definition	__ZNSt3__117__compressed_pairIPNS_15__thread_structENS_14default_deleteIS1_EEE6secondB7v160006Ev
	.p2align	2
__ZNSt3__117__compressed_pairIPNS_15__thread_structENS_14default_deleteIS1_EEE6secondB7v160006Ev: ; @_ZNSt3__117__compressed_pairIPNS_15__thread_structENS_14default_deleteIS1_EEE6secondB7v160006Ev
	.cfi_startproc
; %bb.0:
	sub	sp, sp, #32
	.cfi_def_cfa_offset 32
	stp	x29, x30, [sp, #16]             ; 16-byte Folded Spill
	add	x29, sp, #16
	.cfi_def_cfa w29, 16
	.cfi_offset w30, -8
	.cfi_offset w29, -16
	str	x0, [sp, #8]
	ldr	x0, [sp, #8]
	bl	__ZNSt3__122__compressed_pair_elemINS_14default_deleteINS_15__thread_structEEELi1ELb1EE5__getB7v160006Ev
	ldp	x29, x30, [sp, #16]             ; 16-byte Folded Reload
	add	sp, sp, #32
	ret
	.cfi_endproc
                                        ; -- End function
	.private_extern	__ZNSt3__122__compressed_pair_elemINS_14default_deleteINS_15__thread_structEEELi1ELb1EE5__getB7v160006Ev ; -- Begin function _ZNSt3__122__compressed_pair_elemINS_14default_deleteINS_15__thread_structEEELi1ELb1EE5__getB7v160006Ev
	.globl	__ZNSt3__122__compressed_pair_elemINS_14default_deleteINS_15__thread_structEEELi1ELb1EE5__getB7v160006Ev
	.weak_definition	__ZNSt3__122__compressed_pair_elemINS_14default_deleteINS_15__thread_structEEELi1ELb1EE5__getB7v160006Ev
	.p2align	2
__ZNSt3__122__compressed_pair_elemINS_14default_deleteINS_15__thread_structEEELi1ELb1EE5__getB7v160006Ev: ; @_ZNSt3__122__compressed_pair_elemINS_14default_deleteINS_15__thread_structEEELi1ELb1EE5__getB7v160006Ev
	.cfi_startproc
; %bb.0:
	sub	sp, sp, #16
	.cfi_def_cfa_offset 16
	str	x0, [sp, #8]
	ldr	x0, [sp, #8]
	add	sp, sp, #16
	ret
	.cfi_endproc
                                        ; -- End function
	.globl	__ZNSt3__117__compressed_pairIPNS_15__thread_structENS_14default_deleteIS1_EEEC2B7v160006IS2_S4_EEOT_OT0_ ; -- Begin function _ZNSt3__117__compressed_pairIPNS_15__thread_structENS_14default_deleteIS1_EEEC2B7v160006IS2_S4_EEOT_OT0_
	.weak_def_can_be_hidden	__ZNSt3__117__compressed_pairIPNS_15__thread_structENS_14default_deleteIS1_EEEC2B7v160006IS2_S4_EEOT_OT0_
	.p2align	2
__ZNSt3__117__compressed_pairIPNS_15__thread_structENS_14default_deleteIS1_EEEC2B7v160006IS2_S4_EEOT_OT0_: ; @_ZNSt3__117__compressed_pairIPNS_15__thread_structENS_14default_deleteIS1_EEEC2B7v160006IS2_S4_EEOT_OT0_
	.cfi_startproc
; %bb.0:
	sub	sp, sp, #48
	.cfi_def_cfa_offset 48
	stp	x29, x30, [sp, #32]             ; 16-byte Folded Spill
	add	x29, sp, #32
	.cfi_def_cfa w29, 16
	.cfi_offset w30, -8
	.cfi_offset w29, -16
	stur	x0, [x29, #-8]
	str	x1, [sp, #16]
	str	x2, [sp, #8]
	ldur	x0, [x29, #-8]
	str	x0, [sp]                        ; 8-byte Folded Spill
	ldr	x1, [sp, #16]
	bl	__ZNSt3__122__compressed_pair_elemIPNS_15__thread_structELi0ELb0EEC2B7v160006IS2_vEEOT_
	ldr	x0, [sp]                        ; 8-byte Folded Reload
	ldr	x1, [sp, #8]
	bl	__ZNSt3__122__compressed_pair_elemINS_14default_deleteINS_15__thread_structEEELi1ELb1EEC2B7v160006IS3_vEEOT_
	ldr	x0, [sp]                        ; 8-byte Folded Reload
	ldp	x29, x30, [sp, #32]             ; 16-byte Folded Reload
	add	sp, sp, #48
	ret
	.cfi_endproc
                                        ; -- End function
	.globl	__ZNSt3__122__compressed_pair_elemIPNS_15__thread_structELi0ELb0EEC2B7v160006IS2_vEEOT_ ; -- Begin function _ZNSt3__122__compressed_pair_elemIPNS_15__thread_structELi0ELb0EEC2B7v160006IS2_vEEOT_
	.weak_def_can_be_hidden	__ZNSt3__122__compressed_pair_elemIPNS_15__thread_structELi0ELb0EEC2B7v160006IS2_vEEOT_
	.p2align	2
__ZNSt3__122__compressed_pair_elemIPNS_15__thread_structELi0ELb0EEC2B7v160006IS2_vEEOT_: ; @_ZNSt3__122__compressed_pair_elemIPNS_15__thread_structELi0ELb0EEC2B7v160006IS2_vEEOT_
	.cfi_startproc
; %bb.0:
	sub	sp, sp, #16
	.cfi_def_cfa_offset 16
	str	x0, [sp, #8]
	str	x1, [sp]
	ldr	x0, [sp, #8]
	ldr	x8, [sp]
	ldr	x8, [x8]
	str	x8, [x0]
	add	sp, sp, #16
	ret
	.cfi_endproc
                                        ; -- End function
	.globl	__ZNSt3__122__compressed_pair_elemINS_14default_deleteINS_15__thread_structEEELi1ELb1EEC2B7v160006IS3_vEEOT_ ; -- Begin function _ZNSt3__122__compressed_pair_elemINS_14default_deleteINS_15__thread_structEEELi1ELb1EEC2B7v160006IS3_vEEOT_
	.weak_def_can_be_hidden	__ZNSt3__122__compressed_pair_elemINS_14default_deleteINS_15__thread_structEEELi1ELb1EEC2B7v160006IS3_vEEOT_
	.p2align	2
__ZNSt3__122__compressed_pair_elemINS_14default_deleteINS_15__thread_structEEELi1ELb1EEC2B7v160006IS3_vEEOT_: ; @_ZNSt3__122__compressed_pair_elemINS_14default_deleteINS_15__thread_structEEELi1ELb1EEC2B7v160006IS3_vEEOT_
	.cfi_startproc
; %bb.0:
	sub	sp, sp, #16
	.cfi_def_cfa_offset 16
	str	x0, [sp, #8]
	str	x1, [sp]
	ldr	x0, [sp, #8]
	add	sp, sp, #16
	ret
	.cfi_endproc
                                        ; -- End function
	.globl	__ZNSt3__110unique_ptrINS_5tupleIJNS0_INS_15__thread_structENS_14default_deleteIS2_EEEEZN10ThreadPoolC1EmEUlvE_EEENS3_IS8_EEEC2B7v160006ILb1EvEEPS8_ ; -- Begin function _ZNSt3__110unique_ptrINS_5tupleIJNS0_INS_15__thread_structENS_14default_deleteIS2_EEEEZN10ThreadPoolC1EmEUlvE_EEENS3_IS8_EEEC2B7v160006ILb1EvEEPS8_
	.weak_def_can_be_hidden	__ZNSt3__110unique_ptrINS_5tupleIJNS0_INS_15__thread_structENS_14default_deleteIS2_EEEEZN10ThreadPoolC1EmEUlvE_EEENS3_IS8_EEEC2B7v160006ILb1EvEEPS8_
	.p2align	2
__ZNSt3__110unique_ptrINS_5tupleIJNS0_INS_15__thread_structENS_14default_deleteIS2_EEEEZN10ThreadPoolC1EmEUlvE_EEENS3_IS8_EEEC2B7v160006ILb1EvEEPS8_: ; @_ZNSt3__110unique_ptrINS_5tupleIJNS0_INS_15__thread_structENS_14default_deleteIS2_EEEEZN10ThreadPoolC1EmEUlvE_EEENS3_IS8_EEEC2B7v160006ILb1EvEEPS8_
Lfunc_begin15:
	.cfi_startproc
	.cfi_personality 155, ___gxx_personality_v0
	.cfi_lsda 16, Lexception15
; %bb.0:
	sub	sp, sp, #48
	.cfi_def_cfa_offset 48
	stp	x29, x30, [sp, #32]             ; 16-byte Folded Spill
	add	x29, sp, #32
	.cfi_def_cfa w29, 16
	.cfi_offset w30, -8
	.cfi_offset w29, -16
	mov	x8, x1
	stur	x0, [x29, #-8]
	add	x1, sp, #16
	str	x8, [sp, #16]
	ldur	x0, [x29, #-8]
	str	x0, [sp]                        ; 8-byte Folded Spill
Ltmp96:
	add	x2, sp, #15
	bl	__ZNSt3__117__compressed_pairIPNS_5tupleIJNS_10unique_ptrINS_15__thread_structENS_14default_deleteIS3_EEEEZN10ThreadPoolC1EmEUlvE_EEENS4_IS9_EEEC1B7v160006IRSA_NS_16__value_init_tagEEEOT_OT0_
Ltmp97:
	b	LBB102_1
LBB102_1:
	ldr	x0, [sp]                        ; 8-byte Folded Reload
	ldp	x29, x30, [sp, #32]             ; 16-byte Folded Reload
	add	sp, sp, #48
	ret
LBB102_2:
Ltmp98:
	bl	___clang_call_terminate
Lfunc_end15:
	.cfi_endproc
	.section	__TEXT,__gcc_except_tab
	.p2align	2, 0x0
GCC_except_table102:
Lexception15:
	.byte	255                             ; @LPStart Encoding = omit
	.byte	155                             ; @TType Encoding = indirect pcrel sdata4
	.uleb128 Lttbase6-Lttbaseref6
Lttbaseref6:
	.byte	1                               ; Call site Encoding = uleb128
	.uleb128 Lcst_end15-Lcst_begin15
Lcst_begin15:
	.uleb128 Ltmp96-Lfunc_begin15           ; >> Call Site 1 <<
	.uleb128 Ltmp97-Ltmp96                  ;   Call between Ltmp96 and Ltmp97
	.uleb128 Ltmp98-Lfunc_begin15           ;     jumps to Ltmp98
	.byte	1                               ;   On action: 1
Lcst_end15:
	.byte	1                               ; >> Action Record 1 <<
                                        ;   Catch TypeInfo 1
	.byte	0                               ;   No further actions
	.p2align	2, 0x0
                                        ; >> Catch TypeInfos <<
	.long	0                               ; TypeInfo 1
Lttbase6:
	.p2align	2, 0x0
                                        ; -- End function
	.section	__TEXT,__text,regular,pure_instructions
	.globl	__ZNSt3__117__compressed_pairIPNS_5tupleIJNS_10unique_ptrINS_15__thread_structENS_14default_deleteIS3_EEEEZN10ThreadPoolC1EmEUlvE_EEENS4_IS9_EEEC1B7v160006IRSA_NS_16__value_init_tagEEEOT_OT0_ ; -- Begin function _ZNSt3__117__compressed_pairIPNS_5tupleIJNS_10unique_ptrINS_15__thread_structENS_14default_deleteIS3_EEEEZN10ThreadPoolC1EmEUlvE_EEENS4_IS9_EEEC1B7v160006IRSA_NS_16__value_init_tagEEEOT_OT0_
	.weak_def_can_be_hidden	__ZNSt3__117__compressed_pairIPNS_5tupleIJNS_10unique_ptrINS_15__thread_structENS_14default_deleteIS3_EEEEZN10ThreadPoolC1EmEUlvE_EEENS4_IS9_EEEC1B7v160006IRSA_NS_16__value_init_tagEEEOT_OT0_
	.p2align	2
__ZNSt3__117__compressed_pairIPNS_5tupleIJNS_10unique_ptrINS_15__thread_structENS_14default_deleteIS3_EEEEZN10ThreadPoolC1EmEUlvE_EEENS4_IS9_EEEC1B7v160006IRSA_NS_16__value_init_tagEEEOT_OT0_: ; @_ZNSt3__117__compressed_pairIPNS_5tupleIJNS_10unique_ptrINS_15__thread_structENS_14default_deleteIS3_EEEEZN10ThreadPoolC1EmEUlvE_EEENS4_IS9_EEEC1B7v160006IRSA_NS_16__value_init_tagEEEOT_OT0_
	.cfi_startproc
; %bb.0:
	sub	sp, sp, #48
	.cfi_def_cfa_offset 48
	stp	x29, x30, [sp, #32]             ; 16-byte Folded Spill
	add	x29, sp, #32
	.cfi_def_cfa w29, 16
	.cfi_offset w30, -8
	.cfi_offset w29, -16
	stur	x0, [x29, #-8]
	str	x1, [sp, #16]
	str	x2, [sp, #8]
	ldur	x0, [x29, #-8]
	str	x0, [sp]                        ; 8-byte Folded Spill
	ldr	x1, [sp, #16]
	ldr	x2, [sp, #8]
	bl	__ZNSt3__117__compressed_pairIPNS_5tupleIJNS_10unique_ptrINS_15__thread_structENS_14default_deleteIS3_EEEEZN10ThreadPoolC1EmEUlvE_EEENS4_IS9_EEEC2B7v160006IRSA_NS_16__value_init_tagEEEOT_OT0_
	ldr	x0, [sp]                        ; 8-byte Folded Reload
	ldp	x29, x30, [sp, #32]             ; 16-byte Folded Reload
	add	sp, sp, #48
	ret
	.cfi_endproc
                                        ; -- End function
	.globl	__ZNSt3__117__compressed_pairIPNS_5tupleIJNS_10unique_ptrINS_15__thread_structENS_14default_deleteIS3_EEEEZN10ThreadPoolC1EmEUlvE_EEENS4_IS9_EEEC2B7v160006IRSA_NS_16__value_init_tagEEEOT_OT0_ ; -- Begin function _ZNSt3__117__compressed_pairIPNS_5tupleIJNS_10unique_ptrINS_15__thread_structENS_14default_deleteIS3_EEEEZN10ThreadPoolC1EmEUlvE_EEENS4_IS9_EEEC2B7v160006IRSA_NS_16__value_init_tagEEEOT_OT0_
	.weak_def_can_be_hidden	__ZNSt3__117__compressed_pairIPNS_5tupleIJNS_10unique_ptrINS_15__thread_structENS_14default_deleteIS3_EEEEZN10ThreadPoolC1EmEUlvE_EEENS4_IS9_EEEC2B7v160006IRSA_NS_16__value_init_tagEEEOT_OT0_
	.p2align	2
__ZNSt3__117__compressed_pairIPNS_5tupleIJNS_10unique_ptrINS_15__thread_structENS_14default_deleteIS3_EEEEZN10ThreadPoolC1EmEUlvE_EEENS4_IS9_EEEC2B7v160006IRSA_NS_16__value_init_tagEEEOT_OT0_: ; @_ZNSt3__117__compressed_pairIPNS_5tupleIJNS_10unique_ptrINS_15__thread_structENS_14default_deleteIS3_EEEEZN10ThreadPoolC1EmEUlvE_EEENS4_IS9_EEEC2B7v160006IRSA_NS_16__value_init_tagEEEOT_OT0_
	.cfi_startproc
; %bb.0:
	sub	sp, sp, #64
	.cfi_def_cfa_offset 64
	stp	x29, x30, [sp, #48]             ; 16-byte Folded Spill
	add	x29, sp, #48
	.cfi_def_cfa w29, 16
	.cfi_offset w30, -8
	.cfi_offset w29, -16
	stur	x0, [x29, #-8]
	stur	x1, [x29, #-16]
	str	x2, [sp, #24]
	ldur	x0, [x29, #-8]
	str	x0, [sp, #8]                    ; 8-byte Folded Spill
	ldur	x1, [x29, #-16]
	bl	__ZNSt3__122__compressed_pair_elemIPNS_5tupleIJNS_10unique_ptrINS_15__thread_structENS_14default_deleteIS3_EEEEZN10ThreadPoolC1EmEUlvE_EEELi0ELb0EEC2B7v160006IRSA_vEEOT_
	ldr	x0, [sp, #8]                    ; 8-byte Folded Reload
	bl	__ZNSt3__122__compressed_pair_elemINS_14default_deleteINS_5tupleIJNS_10unique_ptrINS_15__thread_structENS1_IS4_EEEEZN10ThreadPoolC1EmEUlvE_EEEEELi1ELb1EEC2B7v160006ENS_16__value_init_tagE
	ldr	x0, [sp, #8]                    ; 8-byte Folded Reload
	ldp	x29, x30, [sp, #48]             ; 16-byte Folded Reload
	add	sp, sp, #64
	ret
	.cfi_endproc
                                        ; -- End function
	.globl	__ZNSt3__122__compressed_pair_elemIPNS_5tupleIJNS_10unique_ptrINS_15__thread_structENS_14default_deleteIS3_EEEEZN10ThreadPoolC1EmEUlvE_EEELi0ELb0EEC2B7v160006IRSA_vEEOT_ ; -- Begin function _ZNSt3__122__compressed_pair_elemIPNS_5tupleIJNS_10unique_ptrINS_15__thread_structENS_14default_deleteIS3_EEEEZN10ThreadPoolC1EmEUlvE_EEELi0ELb0EEC2B7v160006IRSA_vEEOT_
	.weak_def_can_be_hidden	__ZNSt3__122__compressed_pair_elemIPNS_5tupleIJNS_10unique_ptrINS_15__thread_structENS_14default_deleteIS3_EEEEZN10ThreadPoolC1EmEUlvE_EEELi0ELb0EEC2B7v160006IRSA_vEEOT_
	.p2align	2
__ZNSt3__122__compressed_pair_elemIPNS_5tupleIJNS_10unique_ptrINS_15__thread_structENS_14default_deleteIS3_EEEEZN10ThreadPoolC1EmEUlvE_EEELi0ELb0EEC2B7v160006IRSA_vEEOT_: ; @_ZNSt3__122__compressed_pair_elemIPNS_5tupleIJNS_10unique_ptrINS_15__thread_structENS_14default_deleteIS3_EEEEZN10ThreadPoolC1EmEUlvE_EEELi0ELb0EEC2B7v160006IRSA_vEEOT_
	.cfi_startproc
; %bb.0:
	sub	sp, sp, #16
	.cfi_def_cfa_offset 16
	str	x0, [sp, #8]
	str	x1, [sp]
	ldr	x0, [sp, #8]
	ldr	x8, [sp]
	ldr	x8, [x8]
	str	x8, [x0]
	add	sp, sp, #16
	ret
	.cfi_endproc
                                        ; -- End function
	.private_extern	__ZNSt3__122__compressed_pair_elemINS_14default_deleteINS_5tupleIJNS_10unique_ptrINS_15__thread_structENS1_IS4_EEEEZN10ThreadPoolC1EmEUlvE_EEEEELi1ELb1EEC2B7v160006ENS_16__value_init_tagE ; -- Begin function _ZNSt3__122__compressed_pair_elemINS_14default_deleteINS_5tupleIJNS_10unique_ptrINS_15__thread_structENS1_IS4_EEEEZN10ThreadPoolC1EmEUlvE_EEEEELi1ELb1EEC2B7v160006ENS_16__value_init_tagE
	.globl	__ZNSt3__122__compressed_pair_elemINS_14default_deleteINS_5tupleIJNS_10unique_ptrINS_15__thread_structENS1_IS4_EEEEZN10ThreadPoolC1EmEUlvE_EEEEELi1ELb1EEC2B7v160006ENS_16__value_init_tagE
	.weak_def_can_be_hidden	__ZNSt3__122__compressed_pair_elemINS_14default_deleteINS_5tupleIJNS_10unique_ptrINS_15__thread_structENS1_IS4_EEEEZN10ThreadPoolC1EmEUlvE_EEEEELi1ELb1EEC2B7v160006ENS_16__value_init_tagE
	.p2align	2
__ZNSt3__122__compressed_pair_elemINS_14default_deleteINS_5tupleIJNS_10unique_ptrINS_15__thread_structENS1_IS4_EEEEZN10ThreadPoolC1EmEUlvE_EEEEELi1ELb1EEC2B7v160006ENS_16__value_init_tagE: ; @_ZNSt3__122__compressed_pair_elemINS_14default_deleteINS_5tupleIJNS_10unique_ptrINS_15__thread_structENS1_IS4_EEEEZN10ThreadPoolC1EmEUlvE_EEEEELi1ELb1EEC2B7v160006ENS_16__value_init_tagE
	.cfi_startproc
; %bb.0:
	sub	sp, sp, #16
	.cfi_def_cfa_offset 16
	str	x0, [sp]
	ldr	x0, [sp]
	add	sp, sp, #16
	ret
	.cfi_endproc
                                        ; -- End function
	.globl	__ZNSt3__121__thread_specific_ptrINS_15__thread_structEE11set_pointerEPS1_ ; -- Begin function _ZNSt3__121__thread_specific_ptrINS_15__thread_structEE11set_pointerEPS1_
	.weak_definition	__ZNSt3__121__thread_specific_ptrINS_15__thread_structEE11set_pointerEPS1_
	.p2align	2
__ZNSt3__121__thread_specific_ptrINS_15__thread_structEE11set_pointerEPS1_: ; @_ZNSt3__121__thread_specific_ptrINS_15__thread_structEE11set_pointerEPS1_
	.cfi_startproc
; %bb.0:
	sub	sp, sp, #32
	.cfi_def_cfa_offset 32
	stp	x29, x30, [sp, #16]             ; 16-byte Folded Spill
	add	x29, sp, #16
	.cfi_def_cfa w29, 16
	.cfi_offset w30, -8
	.cfi_offset w29, -16
	str	x0, [sp, #8]
	str	x1, [sp]
	ldr	x8, [sp, #8]
	ldr	x0, [x8]
	ldr	x1, [sp]
	bl	__ZNSt3__116__libcpp_tls_setB7v160006EmPv
	ldp	x29, x30, [sp, #16]             ; 16-byte Folded Reload
	add	sp, sp, #32
	ret
	.cfi_endproc
                                        ; -- End function
	.private_extern	__ZNSt3__13getB7v160006ILm0EJNS_10unique_ptrINS_15__thread_structENS_14default_deleteIS2_EEEEZN10ThreadPoolC1EmEUlvE_EEERNS_13tuple_elementIXT_ENS_5tupleIJDpT0_EEEE4typeERSC_ ; -- Begin function _ZNSt3__13getB7v160006ILm0EJNS_10unique_ptrINS_15__thread_structENS_14default_deleteIS2_EEEEZN10ThreadPoolC1EmEUlvE_EEERNS_13tuple_elementIXT_ENS_5tupleIJDpT0_EEEE4typeERSC_
	.globl	__ZNSt3__13getB7v160006ILm0EJNS_10unique_ptrINS_15__thread_structENS_14default_deleteIS2_EEEEZN10ThreadPoolC1EmEUlvE_EEERNS_13tuple_elementIXT_ENS_5tupleIJDpT0_EEEE4typeERSC_
	.weak_definition	__ZNSt3__13getB7v160006ILm0EJNS_10unique_ptrINS_15__thread_structENS_14default_deleteIS2_EEEEZN10ThreadPoolC1EmEUlvE_EEERNS_13tuple_elementIXT_ENS_5tupleIJDpT0_EEEE4typeERSC_
	.p2align	2
__ZNSt3__13getB7v160006ILm0EJNS_10unique_ptrINS_15__thread_structENS_14default_deleteIS2_EEEEZN10ThreadPoolC1EmEUlvE_EEERNS_13tuple_elementIXT_ENS_5tupleIJDpT0_EEEE4typeERSC_: ; @_ZNSt3__13getB7v160006ILm0EJNS_10unique_ptrINS_15__thread_structENS_14default_deleteIS2_EEEEZN10ThreadPoolC1EmEUlvE_EEERNS_13tuple_elementIXT_ENS_5tupleIJDpT0_EEEE4typeERSC_
	.cfi_startproc
; %bb.0:
	sub	sp, sp, #32
	.cfi_def_cfa_offset 32
	stp	x29, x30, [sp, #16]             ; 16-byte Folded Spill
	add	x29, sp, #16
	.cfi_def_cfa w29, 16
	.cfi_offset w30, -8
	.cfi_offset w29, -16
	str	x0, [sp, #8]
	ldr	x0, [sp, #8]
	bl	__ZNSt3__112__tuple_leafILm0ENS_10unique_ptrINS_15__thread_structENS_14default_deleteIS2_EEEELb0EE3getB7v160006Ev
	ldp	x29, x30, [sp, #16]             ; 16-byte Folded Reload
	add	sp, sp, #32
	ret
	.cfi_endproc
                                        ; -- End function
	.private_extern	__ZNSt3__116__thread_executeB7v160006INS_10unique_ptrINS_15__thread_structENS_14default_deleteIS2_EEEEZN10ThreadPoolC1EmEUlvE_JEJEEEvRNS_5tupleIJT_T0_DpT1_EEENS_15__tuple_indicesIJXspT2_EEEE ; -- Begin function _ZNSt3__116__thread_executeB7v160006INS_10unique_ptrINS_15__thread_structENS_14default_deleteIS2_EEEEZN10ThreadPoolC1EmEUlvE_JEJEEEvRNS_5tupleIJT_T0_DpT1_EEENS_15__tuple_indicesIJXspT2_EEEE
	.globl	__ZNSt3__116__thread_executeB7v160006INS_10unique_ptrINS_15__thread_structENS_14default_deleteIS2_EEEEZN10ThreadPoolC1EmEUlvE_JEJEEEvRNS_5tupleIJT_T0_DpT1_EEENS_15__tuple_indicesIJXspT2_EEEE
	.weak_definition	__ZNSt3__116__thread_executeB7v160006INS_10unique_ptrINS_15__thread_structENS_14default_deleteIS2_EEEEZN10ThreadPoolC1EmEUlvE_JEJEEEvRNS_5tupleIJT_T0_DpT1_EEENS_15__tuple_indicesIJXspT2_EEEE
	.p2align	2
__ZNSt3__116__thread_executeB7v160006INS_10unique_ptrINS_15__thread_structENS_14default_deleteIS2_EEEEZN10ThreadPoolC1EmEUlvE_JEJEEEvRNS_5tupleIJT_T0_DpT1_EEENS_15__tuple_indicesIJXspT2_EEEE: ; @_ZNSt3__116__thread_executeB7v160006INS_10unique_ptrINS_15__thread_structENS_14default_deleteIS2_EEEEZN10ThreadPoolC1EmEUlvE_JEJEEEvRNS_5tupleIJT_T0_DpT1_EEENS_15__tuple_indicesIJXspT2_EEEE
	.cfi_startproc
; %bb.0:
	sub	sp, sp, #32
	.cfi_def_cfa_offset 32
	stp	x29, x30, [sp, #16]             ; 16-byte Folded Spill
	add	x29, sp, #16
	.cfi_def_cfa w29, 16
	.cfi_offset w30, -8
	.cfi_offset w29, -16
	str	x0, [sp]
	ldr	x0, [sp]
	bl	__ZNSt3__13getB7v160006ILm1EJNS_10unique_ptrINS_15__thread_structENS_14default_deleteIS2_EEEEZN10ThreadPoolC1EmEUlvE_EEERNS_13tuple_elementIXT_ENS_5tupleIJDpT0_EEEE4typeERSC_
	bl	__ZNSt3__18__invokeB7v160006IZN10ThreadPoolC1EmEUlvE_JEEEDTclclsr3stdE7declvalIT_EEspclsr3stdE7declvalIT0_EEEEOS3_DpOS4_
	ldp	x29, x30, [sp, #16]             ; 16-byte Folded Reload
	add	sp, sp, #32
	ret
	.cfi_endproc
                                        ; -- End function
	.private_extern	__ZNSt3__116__libcpp_tls_setB7v160006EmPv ; -- Begin function _ZNSt3__116__libcpp_tls_setB7v160006EmPv
	.globl	__ZNSt3__116__libcpp_tls_setB7v160006EmPv
	.weak_definition	__ZNSt3__116__libcpp_tls_setB7v160006EmPv
	.p2align	2
__ZNSt3__116__libcpp_tls_setB7v160006EmPv: ; @_ZNSt3__116__libcpp_tls_setB7v160006EmPv
	.cfi_startproc
; %bb.0:
	sub	sp, sp, #32
	.cfi_def_cfa_offset 32
	stp	x29, x30, [sp, #16]             ; 16-byte Folded Spill
	add	x29, sp, #16
	.cfi_def_cfa w29, 16
	.cfi_offset w30, -8
	.cfi_offset w29, -16
	str	x0, [sp, #8]
	str	x1, [sp]
	ldr	x0, [sp, #8]
	ldr	x1, [sp]
	bl	_pthread_setspecific
	ldp	x29, x30, [sp, #16]             ; 16-byte Folded Reload
	add	sp, sp, #32
	ret
	.cfi_endproc
                                        ; -- End function
	.private_extern	__ZNSt3__112__tuple_leafILm0ENS_10unique_ptrINS_15__thread_structENS_14default_deleteIS2_EEEELb0EE3getB7v160006Ev ; -- Begin function _ZNSt3__112__tuple_leafILm0ENS_10unique_ptrINS_15__thread_structENS_14default_deleteIS2_EEEELb0EE3getB7v160006Ev
	.globl	__ZNSt3__112__tuple_leafILm0ENS_10unique_ptrINS_15__thread_structENS_14default_deleteIS2_EEEELb0EE3getB7v160006Ev
	.weak_definition	__ZNSt3__112__tuple_leafILm0ENS_10unique_ptrINS_15__thread_structENS_14default_deleteIS2_EEEELb0EE3getB7v160006Ev
	.p2align	2
__ZNSt3__112__tuple_leafILm0ENS_10unique_ptrINS_15__thread_structENS_14default_deleteIS2_EEEELb0EE3getB7v160006Ev: ; @_ZNSt3__112__tuple_leafILm0ENS_10unique_ptrINS_15__thread_structENS_14default_deleteIS2_EEEELb0EE3getB7v160006Ev
	.cfi_startproc
; %bb.0:
	sub	sp, sp, #16
	.cfi_def_cfa_offset 16
	str	x0, [sp, #8]
	ldr	x0, [sp, #8]
	add	sp, sp, #16
	ret
	.cfi_endproc
                                        ; -- End function
	.private_extern	__ZNSt3__18__invokeB7v160006IZN10ThreadPoolC1EmEUlvE_JEEEDTclclsr3stdE7declvalIT_EEspclsr3stdE7declvalIT0_EEEEOS3_DpOS4_ ; -- Begin function _ZNSt3__18__invokeB7v160006IZN10ThreadPoolC1EmEUlvE_JEEEDTclclsr3stdE7declvalIT_EEspclsr3stdE7declvalIT0_EEEEOS3_DpOS4_
	.globl	__ZNSt3__18__invokeB7v160006IZN10ThreadPoolC1EmEUlvE_JEEEDTclclsr3stdE7declvalIT_EEspclsr3stdE7declvalIT0_EEEEOS3_DpOS4_
	.weak_definition	__ZNSt3__18__invokeB7v160006IZN10ThreadPoolC1EmEUlvE_JEEEDTclclsr3stdE7declvalIT_EEspclsr3stdE7declvalIT0_EEEEOS3_DpOS4_
	.p2align	2
__ZNSt3__18__invokeB7v160006IZN10ThreadPoolC1EmEUlvE_JEEEDTclclsr3stdE7declvalIT_EEspclsr3stdE7declvalIT0_EEEEOS3_DpOS4_: ; @_ZNSt3__18__invokeB7v160006IZN10ThreadPoolC1EmEUlvE_JEEEDTclclsr3stdE7declvalIT_EEspclsr3stdE7declvalIT0_EEEEOS3_DpOS4_
	.cfi_startproc
; %bb.0:
	sub	sp, sp, #32
	.cfi_def_cfa_offset 32
	stp	x29, x30, [sp, #16]             ; 16-byte Folded Spill
	add	x29, sp, #16
	.cfi_def_cfa w29, 16
	.cfi_offset w30, -8
	.cfi_offset w29, -16
	str	x0, [sp, #8]
	ldr	x0, [sp, #8]
	bl	__ZZN10ThreadPoolC1EmENKUlvE_clEv
	ldp	x29, x30, [sp, #16]             ; 16-byte Folded Reload
	add	sp, sp, #32
	ret
	.cfi_endproc
                                        ; -- End function
	.private_extern	__ZNSt3__13getB7v160006ILm1EJNS_10unique_ptrINS_15__thread_structENS_14default_deleteIS2_EEEEZN10ThreadPoolC1EmEUlvE_EEERNS_13tuple_elementIXT_ENS_5tupleIJDpT0_EEEE4typeERSC_ ; -- Begin function _ZNSt3__13getB7v160006ILm1EJNS_10unique_ptrINS_15__thread_structENS_14default_deleteIS2_EEEEZN10ThreadPoolC1EmEUlvE_EEERNS_13tuple_elementIXT_ENS_5tupleIJDpT0_EEEE4typeERSC_
	.globl	__ZNSt3__13getB7v160006ILm1EJNS_10unique_ptrINS_15__thread_structENS_14default_deleteIS2_EEEEZN10ThreadPoolC1EmEUlvE_EEERNS_13tuple_elementIXT_ENS_5tupleIJDpT0_EEEE4typeERSC_
	.weak_definition	__ZNSt3__13getB7v160006ILm1EJNS_10unique_ptrINS_15__thread_structENS_14default_deleteIS2_EEEEZN10ThreadPoolC1EmEUlvE_EEERNS_13tuple_elementIXT_ENS_5tupleIJDpT0_EEEE4typeERSC_
	.p2align	2
__ZNSt3__13getB7v160006ILm1EJNS_10unique_ptrINS_15__thread_structENS_14default_deleteIS2_EEEEZN10ThreadPoolC1EmEUlvE_EEERNS_13tuple_elementIXT_ENS_5tupleIJDpT0_EEEE4typeERSC_: ; @_ZNSt3__13getB7v160006ILm1EJNS_10unique_ptrINS_15__thread_structENS_14default_deleteIS2_EEEEZN10ThreadPoolC1EmEUlvE_EEERNS_13tuple_elementIXT_ENS_5tupleIJDpT0_EEEE4typeERSC_
	.cfi_startproc
; %bb.0:
	sub	sp, sp, #32
	.cfi_def_cfa_offset 32
	stp	x29, x30, [sp, #16]             ; 16-byte Folded Spill
	add	x29, sp, #16
	.cfi_def_cfa w29, 16
	.cfi_offset w30, -8
	.cfi_offset w29, -16
	str	x0, [sp, #8]
	ldr	x8, [sp, #8]
	add	x0, x8, #8
	bl	__ZNSt3__112__tuple_leafILm1EZN10ThreadPoolC1EmEUlvE_Lb0EE3getB7v160006Ev
	ldp	x29, x30, [sp, #16]             ; 16-byte Folded Reload
	add	sp, sp, #32
	ret
	.cfi_endproc
                                        ; -- End function
	.globl	__ZZN10ThreadPoolC1EmENKUlvE_clEv ; -- Begin function _ZZN10ThreadPoolC1EmENKUlvE_clEv
	.weak_definition	__ZZN10ThreadPoolC1EmENKUlvE_clEv
	.p2align	2
__ZZN10ThreadPoolC1EmENKUlvE_clEv:      ; @_ZZN10ThreadPoolC1EmENKUlvE_clEv
Lfunc_begin16:
	.cfi_startproc
	.cfi_personality 155, ___gxx_personality_v0
	.cfi_lsda 16, Lexception16
; %bb.0:
	sub	sp, sp, #144
	.cfi_def_cfa_offset 144
	stp	x29, x30, [sp, #128]            ; 16-byte Folded Spill
	add	x29, sp, #128
	.cfi_def_cfa w29, 16
	.cfi_offset w30, -8
	.cfi_offset w29, -16
	adrp	x8, ___stack_chk_guard@GOTPAGE
	ldr	x8, [x8, ___stack_chk_guard@GOTPAGEOFF]
	ldr	x8, [x8]
	stur	x8, [x29, #-8]
	stur	x0, [x29, #-48]
	ldur	x8, [x29, #-48]
	ldr	x8, [x8]
	str	x8, [sp, #32]                   ; 8-byte Folded Spill
	b	LBB114_1
LBB114_1:                               ; =>This Inner Loop Header: Depth=1
	ldr	x8, [sp, #32]                   ; 8-byte Folded Reload
	add	x1, x8, #72
	add	x0, sp, #64
	str	x0, [sp, #24]                   ; 8-byte Folded Spill
	bl	__ZNSt3__111unique_lockINS_5mutexEEC1B7v160006ERS1_
	ldr	x8, [sp, #32]                   ; 8-byte Folded Reload
	ldr	x1, [sp, #24]                   ; 8-byte Folded Reload
	add	x0, x8, #136
	str	x8, [sp, #56]
	ldr	x2, [sp, #56]
Ltmp102:
	bl	__ZNSt3__118condition_variable4waitIZZN10ThreadPoolC1EmENKUlvE_clEvEUlvE_EEvRNS_11unique_lockINS_5mutexEEET_
Ltmp103:
	b	LBB114_2
LBB114_2:                               ;   in Loop: Header=BB114_1 Depth=1
	ldr	x8, [sp, #32]                   ; 8-byte Folded Reload
	ldrb	w8, [x8, #184]
	tbz	w8, #0, LBB114_7
	b	LBB114_3
LBB114_3:                               ;   in Loop: Header=BB114_1 Depth=1
	ldr	x8, [sp, #32]                   ; 8-byte Folded Reload
	add	x0, x8, #24
Ltmp104:
	bl	__ZNKSt3__15queueINS_8functionIFvvEEENS_5dequeIS3_NS_9allocatorIS3_EEEEE5emptyB7v160006Ev
	str	w0, [sp, #20]                   ; 4-byte Folded Spill
Ltmp105:
	b	LBB114_4
LBB114_4:                               ;   in Loop: Header=BB114_1 Depth=1
	ldr	w8, [sp, #20]                   ; 4-byte Folded Reload
	tbz	w8, #0, LBB114_7
	b	LBB114_5
LBB114_5:                               ;   in Loop: Header=BB114_1 Depth=1
	mov	w8, #1
	str	w8, [sp, #40]
	b	LBB114_12
LBB114_6:
Ltmp108:
	str	x0, [sp, #48]
	mov	x8, x1
	str	w8, [sp, #44]
	b	LBB114_16
LBB114_7:                               ;   in Loop: Header=BB114_1 Depth=1
	ldr	x8, [sp, #32]                   ; 8-byte Folded Reload
	add	x0, x8, #24
Ltmp106:
	bl	__ZNSt3__15queueINS_8functionIFvvEEENS_5dequeIS3_NS_9allocatorIS3_EEEEE5frontB7v160006Ev
	str	x0, [sp, #8]                    ; 8-byte Folded Spill
Ltmp107:
	b	LBB114_8
LBB114_8:                               ;   in Loop: Header=BB114_1 Depth=1
	ldr	x1, [sp, #8]                    ; 8-byte Folded Reload
	sub	x0, x29, #40
	bl	__ZNSt3__18functionIFvvEEC1EOS2_
	ldr	x8, [sp, #32]                   ; 8-byte Folded Reload
	add	x0, x8, #24
Ltmp109:
	bl	__ZNSt3__15queueINS_8functionIFvvEEENS_5dequeIS3_NS_9allocatorIS3_EEEEE3popB7v160006Ev
Ltmp110:
	b	LBB114_9
LBB114_9:                               ;   in Loop: Header=BB114_1 Depth=1
Ltmp111:
	add	x0, sp, #64
	bl	__ZNSt3__111unique_lockINS_5mutexEE6unlockEv
Ltmp112:
	b	LBB114_10
LBB114_10:                              ;   in Loop: Header=BB114_1 Depth=1
Ltmp113:
	sub	x0, x29, #40
	bl	__ZNKSt3__18functionIFvvEEclEv
Ltmp114:
	b	LBB114_11
LBB114_11:                              ;   in Loop: Header=BB114_1 Depth=1
	sub	x0, x29, #40
	bl	__ZNSt3__18functionIFvvEED1Ev
	str	wzr, [sp, #40]
	b	LBB114_12
LBB114_12:                              ;   in Loop: Header=BB114_1 Depth=1
	add	x0, sp, #64
	bl	__ZNSt3__111unique_lockINS_5mutexEED1B7v160006Ev
	ldr	w8, [sp, #40]
	subs	w8, w8, #0
	cset	w8, eq
	tbnz	w8, #0, LBB114_14
	b	LBB114_13
LBB114_13:
	b	LBB114_17
LBB114_14:                              ;   in Loop: Header=BB114_1 Depth=1
	b	LBB114_1
LBB114_15:
Ltmp115:
	str	x0, [sp, #48]
	mov	x8, x1
	str	w8, [sp, #44]
	sub	x0, x29, #40
	bl	__ZNSt3__18functionIFvvEED1Ev
	b	LBB114_16
LBB114_16:
	add	x0, sp, #64
	bl	__ZNSt3__111unique_lockINS_5mutexEED1B7v160006Ev
	b	LBB114_20
LBB114_17:
	ldur	x9, [x29, #-8]
	adrp	x8, ___stack_chk_guard@GOTPAGE
	ldr	x8, [x8, ___stack_chk_guard@GOTPAGEOFF]
	ldr	x8, [x8]
	subs	x8, x8, x9
	cset	w8, eq
	tbnz	w8, #0, LBB114_19
	b	LBB114_18
LBB114_18:
	bl	___stack_chk_fail
LBB114_19:
	ldp	x29, x30, [sp, #128]            ; 16-byte Folded Reload
	add	sp, sp, #144
	ret
LBB114_20:
	ldr	x0, [sp, #48]
	bl	__Unwind_Resume
; %bb.21:
Lfunc_end16:
	.cfi_endproc
	.section	__TEXT,__gcc_except_tab
	.p2align	2, 0x0
GCC_except_table114:
Lexception16:
	.byte	255                             ; @LPStart Encoding = omit
	.byte	255                             ; @TType Encoding = omit
	.byte	1                               ; Call site Encoding = uleb128
	.uleb128 Lcst_end16-Lcst_begin16
Lcst_begin16:
	.uleb128 Lfunc_begin16-Lfunc_begin16    ; >> Call Site 1 <<
	.uleb128 Ltmp102-Lfunc_begin16          ;   Call between Lfunc_begin16 and Ltmp102
	.byte	0                               ;     has no landing pad
	.byte	0                               ;   On action: cleanup
	.uleb128 Ltmp102-Lfunc_begin16          ; >> Call Site 2 <<
	.uleb128 Ltmp107-Ltmp102                ;   Call between Ltmp102 and Ltmp107
	.uleb128 Ltmp108-Lfunc_begin16          ;     jumps to Ltmp108
	.byte	0                               ;   On action: cleanup
	.uleb128 Ltmp109-Lfunc_begin16          ; >> Call Site 3 <<
	.uleb128 Ltmp114-Ltmp109                ;   Call between Ltmp109 and Ltmp114
	.uleb128 Ltmp115-Lfunc_begin16          ;     jumps to Ltmp115
	.byte	0                               ;   On action: cleanup
	.uleb128 Ltmp114-Lfunc_begin16          ; >> Call Site 4 <<
	.uleb128 Lfunc_end16-Ltmp114            ;   Call between Ltmp114 and Lfunc_end16
	.byte	0                               ;     has no landing pad
	.byte	0                               ;   On action: cleanup
Lcst_end16:
	.p2align	2, 0x0
                                        ; -- End function
	.section	__TEXT,__text,regular,pure_instructions
	.private_extern	__ZNSt3__111unique_lockINS_5mutexEEC1B7v160006ERS1_ ; -- Begin function _ZNSt3__111unique_lockINS_5mutexEEC1B7v160006ERS1_
	.globl	__ZNSt3__111unique_lockINS_5mutexEEC1B7v160006ERS1_
	.weak_def_can_be_hidden	__ZNSt3__111unique_lockINS_5mutexEEC1B7v160006ERS1_
	.p2align	2
__ZNSt3__111unique_lockINS_5mutexEEC1B7v160006ERS1_: ; @_ZNSt3__111unique_lockINS_5mutexEEC1B7v160006ERS1_
	.cfi_startproc
; %bb.0:
	sub	sp, sp, #48
	.cfi_def_cfa_offset 48
	stp	x29, x30, [sp, #32]             ; 16-byte Folded Spill
	add	x29, sp, #32
	.cfi_def_cfa w29, 16
	.cfi_offset w30, -8
	.cfi_offset w29, -16
	stur	x0, [x29, #-8]
	str	x1, [sp, #16]
	ldur	x0, [x29, #-8]
	str	x0, [sp, #8]                    ; 8-byte Folded Spill
	ldr	x1, [sp, #16]
	bl	__ZNSt3__111unique_lockINS_5mutexEEC2B7v160006ERS1_
	ldr	x0, [sp, #8]                    ; 8-byte Folded Reload
	ldp	x29, x30, [sp, #32]             ; 16-byte Folded Reload
	add	sp, sp, #48
	ret
	.cfi_endproc
                                        ; -- End function
	.private_extern	__ZNSt3__118condition_variable4waitIZZN10ThreadPoolC1EmENKUlvE_clEvEUlvE_EEvRNS_11unique_lockINS_5mutexEEET_ ; -- Begin function _ZNSt3__118condition_variable4waitIZZN10ThreadPoolC1EmENKUlvE_clEvEUlvE_EEvRNS_11unique_lockINS_5mutexEEET_
	.globl	__ZNSt3__118condition_variable4waitIZZN10ThreadPoolC1EmENKUlvE_clEvEUlvE_EEvRNS_11unique_lockINS_5mutexEEET_
	.weak_definition	__ZNSt3__118condition_variable4waitIZZN10ThreadPoolC1EmENKUlvE_clEvEUlvE_EEvRNS_11unique_lockINS_5mutexEEET_
	.p2align	2
__ZNSt3__118condition_variable4waitIZZN10ThreadPoolC1EmENKUlvE_clEvEUlvE_EEvRNS_11unique_lockINS_5mutexEEET_: ; @_ZNSt3__118condition_variable4waitIZZN10ThreadPoolC1EmENKUlvE_clEvEUlvE_EEvRNS_11unique_lockINS_5mutexEEET_
	.cfi_startproc
; %bb.0:
	sub	sp, sp, #48
	.cfi_def_cfa_offset 48
	stp	x29, x30, [sp, #32]             ; 16-byte Folded Spill
	add	x29, sp, #32
	.cfi_def_cfa w29, 16
	.cfi_offset w30, -8
	.cfi_offset w29, -16
	stur	x2, [x29, #-8]
	str	x0, [sp, #16]
	str	x1, [sp, #8]
	ldr	x8, [sp, #16]
	str	x8, [sp]                        ; 8-byte Folded Spill
	b	LBB116_1
LBB116_1:                               ; =>This Inner Loop Header: Depth=1
	sub	x0, x29, #8
	bl	__ZZZN10ThreadPoolC1EmENKUlvE_clEvENKUlvE_clEv
	tbnz	w0, #0, LBB116_3
	b	LBB116_2
LBB116_2:                               ;   in Loop: Header=BB116_1 Depth=1
	ldr	x0, [sp]                        ; 8-byte Folded Reload
	ldr	x1, [sp, #8]
	bl	__ZNSt3__118condition_variable4waitERNS_11unique_lockINS_5mutexEEE
	b	LBB116_1
LBB116_3:
	ldp	x29, x30, [sp, #32]             ; 16-byte Folded Reload
	add	sp, sp, #48
	ret
	.cfi_endproc
                                        ; -- End function
	.private_extern	__ZNKSt3__15queueINS_8functionIFvvEEENS_5dequeIS3_NS_9allocatorIS3_EEEEE5emptyB7v160006Ev ; -- Begin function _ZNKSt3__15queueINS_8functionIFvvEEENS_5dequeIS3_NS_9allocatorIS3_EEEEE5emptyB7v160006Ev
	.globl	__ZNKSt3__15queueINS_8functionIFvvEEENS_5dequeIS3_NS_9allocatorIS3_EEEEE5emptyB7v160006Ev
	.weak_definition	__ZNKSt3__15queueINS_8functionIFvvEEENS_5dequeIS3_NS_9allocatorIS3_EEEEE5emptyB7v160006Ev
	.p2align	2
__ZNKSt3__15queueINS_8functionIFvvEEENS_5dequeIS3_NS_9allocatorIS3_EEEEE5emptyB7v160006Ev: ; @_ZNKSt3__15queueINS_8functionIFvvEEENS_5dequeIS3_NS_9allocatorIS3_EEEEE5emptyB7v160006Ev
	.cfi_startproc
; %bb.0:
	sub	sp, sp, #32
	.cfi_def_cfa_offset 32
	stp	x29, x30, [sp, #16]             ; 16-byte Folded Spill
	add	x29, sp, #16
	.cfi_def_cfa w29, 16
	.cfi_offset w30, -8
	.cfi_offset w29, -16
	str	x0, [sp, #8]
	ldr	x0, [sp, #8]
	bl	__ZNKSt3__15dequeINS_8functionIFvvEEENS_9allocatorIS3_EEE5emptyB7v160006Ev
	and	w0, w0, #0x1
	ldp	x29, x30, [sp, #16]             ; 16-byte Folded Reload
	add	sp, sp, #32
	ret
	.cfi_endproc
                                        ; -- End function
	.private_extern	__ZNSt3__15queueINS_8functionIFvvEEENS_5dequeIS3_NS_9allocatorIS3_EEEEE5frontB7v160006Ev ; -- Begin function _ZNSt3__15queueINS_8functionIFvvEEENS_5dequeIS3_NS_9allocatorIS3_EEEEE5frontB7v160006Ev
	.globl	__ZNSt3__15queueINS_8functionIFvvEEENS_5dequeIS3_NS_9allocatorIS3_EEEEE5frontB7v160006Ev
	.weak_definition	__ZNSt3__15queueINS_8functionIFvvEEENS_5dequeIS3_NS_9allocatorIS3_EEEEE5frontB7v160006Ev
	.p2align	2
__ZNSt3__15queueINS_8functionIFvvEEENS_5dequeIS3_NS_9allocatorIS3_EEEEE5frontB7v160006Ev: ; @_ZNSt3__15queueINS_8functionIFvvEEENS_5dequeIS3_NS_9allocatorIS3_EEEEE5frontB7v160006Ev
	.cfi_startproc
; %bb.0:
	sub	sp, sp, #32
	.cfi_def_cfa_offset 32
	stp	x29, x30, [sp, #16]             ; 16-byte Folded Spill
	add	x29, sp, #16
	.cfi_def_cfa w29, 16
	.cfi_offset w30, -8
	.cfi_offset w29, -16
	str	x0, [sp, #8]
	ldr	x0, [sp, #8]
	bl	__ZNSt3__15dequeINS_8functionIFvvEEENS_9allocatorIS3_EEE5frontEv
	ldp	x29, x30, [sp, #16]             ; 16-byte Folded Reload
	add	sp, sp, #32
	ret
	.cfi_endproc
                                        ; -- End function
	.globl	__ZNSt3__18functionIFvvEEC1EOS2_ ; -- Begin function _ZNSt3__18functionIFvvEEC1EOS2_
	.weak_def_can_be_hidden	__ZNSt3__18functionIFvvEEC1EOS2_
	.p2align	2
__ZNSt3__18functionIFvvEEC1EOS2_:       ; @_ZNSt3__18functionIFvvEEC1EOS2_
	.cfi_startproc
; %bb.0:
	sub	sp, sp, #48
	.cfi_def_cfa_offset 48
	stp	x29, x30, [sp, #32]             ; 16-byte Folded Spill
	add	x29, sp, #32
	.cfi_def_cfa w29, 16
	.cfi_offset w30, -8
	.cfi_offset w29, -16
	stur	x0, [x29, #-8]
	str	x1, [sp, #16]
	ldur	x0, [x29, #-8]
	str	x0, [sp, #8]                    ; 8-byte Folded Spill
	ldr	x1, [sp, #16]
	bl	__ZNSt3__18functionIFvvEEC2EOS2_
	ldr	x0, [sp, #8]                    ; 8-byte Folded Reload
	ldp	x29, x30, [sp, #32]             ; 16-byte Folded Reload
	add	sp, sp, #48
	ret
	.cfi_endproc
                                        ; -- End function
	.private_extern	__ZNSt3__15queueINS_8functionIFvvEEENS_5dequeIS3_NS_9allocatorIS3_EEEEE3popB7v160006Ev ; -- Begin function _ZNSt3__15queueINS_8functionIFvvEEENS_5dequeIS3_NS_9allocatorIS3_EEEEE3popB7v160006Ev
	.globl	__ZNSt3__15queueINS_8functionIFvvEEENS_5dequeIS3_NS_9allocatorIS3_EEEEE3popB7v160006Ev
	.weak_definition	__ZNSt3__15queueINS_8functionIFvvEEENS_5dequeIS3_NS_9allocatorIS3_EEEEE3popB7v160006Ev
	.p2align	2
__ZNSt3__15queueINS_8functionIFvvEEENS_5dequeIS3_NS_9allocatorIS3_EEEEE3popB7v160006Ev: ; @_ZNSt3__15queueINS_8functionIFvvEEENS_5dequeIS3_NS_9allocatorIS3_EEEEE3popB7v160006Ev
	.cfi_startproc
; %bb.0:
	sub	sp, sp, #32
	.cfi_def_cfa_offset 32
	stp	x29, x30, [sp, #16]             ; 16-byte Folded Spill
	add	x29, sp, #16
	.cfi_def_cfa w29, 16
	.cfi_offset w30, -8
	.cfi_offset w29, -16
	str	x0, [sp, #8]
	ldr	x0, [sp, #8]
	bl	__ZNSt3__15dequeINS_8functionIFvvEEENS_9allocatorIS3_EEE9pop_frontEv
	ldp	x29, x30, [sp, #16]             ; 16-byte Folded Reload
	add	sp, sp, #32
	ret
	.cfi_endproc
                                        ; -- End function
	.globl	__ZNSt3__111unique_lockINS_5mutexEE6unlockEv ; -- Begin function _ZNSt3__111unique_lockINS_5mutexEE6unlockEv
	.weak_definition	__ZNSt3__111unique_lockINS_5mutexEE6unlockEv
	.p2align	2
__ZNSt3__111unique_lockINS_5mutexEE6unlockEv: ; @_ZNSt3__111unique_lockINS_5mutexEE6unlockEv
	.cfi_startproc
; %bb.0:
	sub	sp, sp, #32
	.cfi_def_cfa_offset 32
	stp	x29, x30, [sp, #16]             ; 16-byte Folded Spill
	add	x29, sp, #16
	.cfi_def_cfa w29, 16
	.cfi_offset w30, -8
	.cfi_offset w29, -16
	str	x0, [sp, #8]
	ldr	x8, [sp, #8]
	str	x8, [sp]                        ; 8-byte Folded Spill
	ldrb	w8, [x8, #8]
	tbnz	w8, #0, LBB121_2
	b	LBB121_1
LBB121_1:
	mov	w0, #1
	adrp	x1, l_.str.3@PAGE
	add	x1, x1, l_.str.3@PAGEOFF
	bl	__ZNSt3__120__throw_system_errorEiPKc
LBB121_2:
	ldr	x8, [sp]                        ; 8-byte Folded Reload
	ldr	x0, [x8]
	bl	__ZNSt3__15mutex6unlockEv
	ldr	x8, [sp]                        ; 8-byte Folded Reload
	strb	wzr, [x8, #8]
	ldp	x29, x30, [sp, #16]             ; 16-byte Folded Reload
	add	sp, sp, #32
	ret
	.cfi_endproc
                                        ; -- End function
	.globl	__ZNKSt3__18functionIFvvEEclEv  ; -- Begin function _ZNKSt3__18functionIFvvEEclEv
	.weak_definition	__ZNKSt3__18functionIFvvEEclEv
	.p2align	2
__ZNKSt3__18functionIFvvEEclEv:         ; @_ZNKSt3__18functionIFvvEEclEv
	.cfi_startproc
; %bb.0:
	sub	sp, sp, #32
	.cfi_def_cfa_offset 32
	stp	x29, x30, [sp, #16]             ; 16-byte Folded Spill
	add	x29, sp, #16
	.cfi_def_cfa w29, 16
	.cfi_offset w30, -8
	.cfi_offset w29, -16
	str	x0, [sp, #8]
	ldr	x0, [sp, #8]
	bl	__ZNKSt3__110__function12__value_funcIFvvEEclB7v160006Ev
	ldp	x29, x30, [sp, #16]             ; 16-byte Folded Reload
	add	sp, sp, #32
	ret
	.cfi_endproc
                                        ; -- End function
	.globl	__ZNSt3__18functionIFvvEED1Ev   ; -- Begin function _ZNSt3__18functionIFvvEED1Ev
	.weak_def_can_be_hidden	__ZNSt3__18functionIFvvEED1Ev
	.p2align	2
__ZNSt3__18functionIFvvEED1Ev:          ; @_ZNSt3__18functionIFvvEED1Ev
	.cfi_startproc
; %bb.0:
	sub	sp, sp, #32
	.cfi_def_cfa_offset 32
	stp	x29, x30, [sp, #16]             ; 16-byte Folded Spill
	add	x29, sp, #16
	.cfi_def_cfa w29, 16
	.cfi_offset w30, -8
	.cfi_offset w29, -16
	str	x0, [sp, #8]
	ldr	x0, [sp, #8]
	str	x0, [sp]                        ; 8-byte Folded Spill
	bl	__ZNSt3__18functionIFvvEED2Ev
	ldr	x0, [sp]                        ; 8-byte Folded Reload
	ldp	x29, x30, [sp, #16]             ; 16-byte Folded Reload
	add	sp, sp, #32
	ret
	.cfi_endproc
                                        ; -- End function
	.private_extern	__ZNSt3__111unique_lockINS_5mutexEED1B7v160006Ev ; -- Begin function _ZNSt3__111unique_lockINS_5mutexEED1B7v160006Ev
	.globl	__ZNSt3__111unique_lockINS_5mutexEED1B7v160006Ev
	.weak_def_can_be_hidden	__ZNSt3__111unique_lockINS_5mutexEED1B7v160006Ev
	.p2align	2
__ZNSt3__111unique_lockINS_5mutexEED1B7v160006Ev: ; @_ZNSt3__111unique_lockINS_5mutexEED1B7v160006Ev
	.cfi_startproc
; %bb.0:
	sub	sp, sp, #32
	.cfi_def_cfa_offset 32
	stp	x29, x30, [sp, #16]             ; 16-byte Folded Spill
	add	x29, sp, #16
	.cfi_def_cfa w29, 16
	.cfi_offset w30, -8
	.cfi_offset w29, -16
	str	x0, [sp, #8]
	ldr	x0, [sp, #8]
	str	x0, [sp]                        ; 8-byte Folded Spill
	bl	__ZNSt3__111unique_lockINS_5mutexEED2B7v160006Ev
	ldr	x0, [sp]                        ; 8-byte Folded Reload
	ldp	x29, x30, [sp, #16]             ; 16-byte Folded Reload
	add	sp, sp, #32
	ret
	.cfi_endproc
                                        ; -- End function
	.private_extern	__ZNSt3__111unique_lockINS_5mutexEEC2B7v160006ERS1_ ; -- Begin function _ZNSt3__111unique_lockINS_5mutexEEC2B7v160006ERS1_
	.globl	__ZNSt3__111unique_lockINS_5mutexEEC2B7v160006ERS1_
	.weak_def_can_be_hidden	__ZNSt3__111unique_lockINS_5mutexEEC2B7v160006ERS1_
	.p2align	2
__ZNSt3__111unique_lockINS_5mutexEEC2B7v160006ERS1_: ; @_ZNSt3__111unique_lockINS_5mutexEEC2B7v160006ERS1_
	.cfi_startproc
; %bb.0:
	sub	sp, sp, #48
	.cfi_def_cfa_offset 48
	stp	x29, x30, [sp, #32]             ; 16-byte Folded Spill
	add	x29, sp, #32
	.cfi_def_cfa w29, 16
	.cfi_offset w30, -8
	.cfi_offset w29, -16
	stur	x0, [x29, #-8]
	str	x1, [sp, #16]
	ldur	x8, [x29, #-8]
	str	x8, [sp, #8]                    ; 8-byte Folded Spill
	ldr	x9, [sp, #16]
	str	x9, [x8]
	mov	w9, #1
	strb	w9, [x8, #8]
	ldr	x0, [x8]
	bl	__ZNSt3__15mutex4lockEv
	ldr	x0, [sp, #8]                    ; 8-byte Folded Reload
	ldp	x29, x30, [sp, #32]             ; 16-byte Folded Reload
	add	sp, sp, #48
	ret
	.cfi_endproc
                                        ; -- End function
	.globl	__ZZZN10ThreadPoolC1EmENKUlvE_clEvENKUlvE_clEv ; -- Begin function _ZZZN10ThreadPoolC1EmENKUlvE_clEvENKUlvE_clEv
	.weak_definition	__ZZZN10ThreadPoolC1EmENKUlvE_clEvENKUlvE_clEv
	.p2align	2
__ZZZN10ThreadPoolC1EmENKUlvE_clEvENKUlvE_clEv: ; @_ZZZN10ThreadPoolC1EmENKUlvE_clEvENKUlvE_clEv
	.cfi_startproc
; %bb.0:
	sub	sp, sp, #48
	.cfi_def_cfa_offset 48
	stp	x29, x30, [sp, #32]             ; 16-byte Folded Spill
	add	x29, sp, #32
	.cfi_def_cfa w29, 16
	.cfi_offset w30, -8
	.cfi_offset w29, -16
	stur	x0, [x29, #-8]
	ldur	x8, [x29, #-8]
	ldr	x8, [x8]
	str	x8, [sp, #8]                    ; 8-byte Folded Spill
	ldrb	w8, [x8, #184]
	mov	w9, #1
	stur	w9, [x29, #-12]                 ; 4-byte Folded Spill
	tbnz	w8, #0, LBB126_2
	b	LBB126_1
LBB126_1:
	ldr	x8, [sp, #8]                    ; 8-byte Folded Reload
	add	x0, x8, #24
	bl	__ZNKSt3__15queueINS_8functionIFvvEEENS_5dequeIS3_NS_9allocatorIS3_EEEEE5emptyB7v160006Ev
	eor	w8, w0, #0x1
	stur	w8, [x29, #-12]                 ; 4-byte Folded Spill
	b	LBB126_2
LBB126_2:
	ldur	w8, [x29, #-12]                 ; 4-byte Folded Reload
	and	w0, w8, #0x1
	ldp	x29, x30, [sp, #32]             ; 16-byte Folded Reload
	add	sp, sp, #48
	ret
	.cfi_endproc
                                        ; -- End function
	.private_extern	__ZNKSt3__15dequeINS_8functionIFvvEEENS_9allocatorIS3_EEE5emptyB7v160006Ev ; -- Begin function _ZNKSt3__15dequeINS_8functionIFvvEEENS_9allocatorIS3_EEE5emptyB7v160006Ev
	.globl	__ZNKSt3__15dequeINS_8functionIFvvEEENS_9allocatorIS3_EEE5emptyB7v160006Ev
	.weak_definition	__ZNKSt3__15dequeINS_8functionIFvvEEENS_9allocatorIS3_EEE5emptyB7v160006Ev
	.p2align	2
__ZNKSt3__15dequeINS_8functionIFvvEEENS_9allocatorIS3_EEE5emptyB7v160006Ev: ; @_ZNKSt3__15dequeINS_8functionIFvvEEENS_9allocatorIS3_EEE5emptyB7v160006Ev
	.cfi_startproc
; %bb.0:
	sub	sp, sp, #32
	.cfi_def_cfa_offset 32
	stp	x29, x30, [sp, #16]             ; 16-byte Folded Spill
	add	x29, sp, #16
	.cfi_def_cfa w29, 16
	.cfi_offset w30, -8
	.cfi_offset w29, -16
	str	x0, [sp, #8]
	ldr	x0, [sp, #8]
	bl	__ZNKSt3__15dequeINS_8functionIFvvEEENS_9allocatorIS3_EEE4sizeB7v160006Ev
	subs	x8, x0, #0
	cset	w8, eq
	and	w0, w8, #0x1
	ldp	x29, x30, [sp, #16]             ; 16-byte Folded Reload
	add	sp, sp, #32
	ret
	.cfi_endproc
                                        ; -- End function
	.private_extern	__ZNKSt3__15dequeINS_8functionIFvvEEENS_9allocatorIS3_EEE4sizeB7v160006Ev ; -- Begin function _ZNKSt3__15dequeINS_8functionIFvvEEENS_9allocatorIS3_EEE4sizeB7v160006Ev
	.globl	__ZNKSt3__15dequeINS_8functionIFvvEEENS_9allocatorIS3_EEE4sizeB7v160006Ev
	.weak_definition	__ZNKSt3__15dequeINS_8functionIFvvEEENS_9allocatorIS3_EEE4sizeB7v160006Ev
	.p2align	2
__ZNKSt3__15dequeINS_8functionIFvvEEENS_9allocatorIS3_EEE4sizeB7v160006Ev: ; @_ZNKSt3__15dequeINS_8functionIFvvEEENS_9allocatorIS3_EEE4sizeB7v160006Ev
	.cfi_startproc
; %bb.0:
	sub	sp, sp, #32
	.cfi_def_cfa_offset 32
	stp	x29, x30, [sp, #16]             ; 16-byte Folded Spill
	add	x29, sp, #16
	.cfi_def_cfa w29, 16
	.cfi_offset w30, -8
	.cfi_offset w29, -16
	str	x0, [sp, #8]
	ldr	x0, [sp, #8]
	bl	__ZNKSt3__15dequeINS_8functionIFvvEEENS_9allocatorIS3_EEE6__sizeB7v160006Ev
	ldr	x0, [x0]
	ldp	x29, x30, [sp, #16]             ; 16-byte Folded Reload
	add	sp, sp, #32
	ret
	.cfi_endproc
                                        ; -- End function
	.private_extern	__ZNKSt3__15dequeINS_8functionIFvvEEENS_9allocatorIS3_EEE6__sizeB7v160006Ev ; -- Begin function _ZNKSt3__15dequeINS_8functionIFvvEEENS_9allocatorIS3_EEE6__sizeB7v160006Ev
	.globl	__ZNKSt3__15dequeINS_8functionIFvvEEENS_9allocatorIS3_EEE6__sizeB7v160006Ev
	.weak_definition	__ZNKSt3__15dequeINS_8functionIFvvEEENS_9allocatorIS3_EEE6__sizeB7v160006Ev
	.p2align	2
__ZNKSt3__15dequeINS_8functionIFvvEEENS_9allocatorIS3_EEE6__sizeB7v160006Ev: ; @_ZNKSt3__15dequeINS_8functionIFvvEEENS_9allocatorIS3_EEE6__sizeB7v160006Ev
	.cfi_startproc
; %bb.0:
	sub	sp, sp, #32
	.cfi_def_cfa_offset 32
	stp	x29, x30, [sp, #16]             ; 16-byte Folded Spill
	add	x29, sp, #16
	.cfi_def_cfa w29, 16
	.cfi_offset w30, -8
	.cfi_offset w29, -16
	str	x0, [sp, #8]
	ldr	x8, [sp, #8]
	add	x0, x8, #40
	bl	__ZNKSt3__117__compressed_pairImNS_9allocatorINS_8functionIFvvEEEEEE5firstB7v160006Ev
	ldp	x29, x30, [sp, #16]             ; 16-byte Folded Reload
	add	sp, sp, #32
	ret
	.cfi_endproc
                                        ; -- End function
	.private_extern	__ZNKSt3__117__compressed_pairImNS_9allocatorINS_8functionIFvvEEEEEE5firstB7v160006Ev ; -- Begin function _ZNKSt3__117__compressed_pairImNS_9allocatorINS_8functionIFvvEEEEEE5firstB7v160006Ev
	.globl	__ZNKSt3__117__compressed_pairImNS_9allocatorINS_8functionIFvvEEEEEE5firstB7v160006Ev
	.weak_definition	__ZNKSt3__117__compressed_pairImNS_9allocatorINS_8functionIFvvEEEEEE5firstB7v160006Ev
	.p2align	2
__ZNKSt3__117__compressed_pairImNS_9allocatorINS_8functionIFvvEEEEEE5firstB7v160006Ev: ; @_ZNKSt3__117__compressed_pairImNS_9allocatorINS_8functionIFvvEEEEEE5firstB7v160006Ev
	.cfi_startproc
; %bb.0:
	sub	sp, sp, #32
	.cfi_def_cfa_offset 32
	stp	x29, x30, [sp, #16]             ; 16-byte Folded Spill
	add	x29, sp, #16
	.cfi_def_cfa w29, 16
	.cfi_offset w30, -8
	.cfi_offset w29, -16
	str	x0, [sp, #8]
	ldr	x0, [sp, #8]
	bl	__ZNKSt3__122__compressed_pair_elemImLi0ELb0EE5__getB7v160006Ev
	ldp	x29, x30, [sp, #16]             ; 16-byte Folded Reload
	add	sp, sp, #32
	ret
	.cfi_endproc
                                        ; -- End function
	.private_extern	__ZNKSt3__122__compressed_pair_elemImLi0ELb0EE5__getB7v160006Ev ; -- Begin function _ZNKSt3__122__compressed_pair_elemImLi0ELb0EE5__getB7v160006Ev
	.globl	__ZNKSt3__122__compressed_pair_elemImLi0ELb0EE5__getB7v160006Ev
	.weak_definition	__ZNKSt3__122__compressed_pair_elemImLi0ELb0EE5__getB7v160006Ev
	.p2align	2
__ZNKSt3__122__compressed_pair_elemImLi0ELb0EE5__getB7v160006Ev: ; @_ZNKSt3__122__compressed_pair_elemImLi0ELb0EE5__getB7v160006Ev
	.cfi_startproc
; %bb.0:
	sub	sp, sp, #16
	.cfi_def_cfa_offset 16
	str	x0, [sp, #8]
	ldr	x0, [sp, #8]
	add	sp, sp, #16
	ret
	.cfi_endproc
                                        ; -- End function
	.private_extern	__ZNSt3__15dequeINS_8functionIFvvEEENS_9allocatorIS3_EEE5frontEv ; -- Begin function _ZNSt3__15dequeINS_8functionIFvvEEENS_9allocatorIS3_EEE5frontEv
	.globl	__ZNSt3__15dequeINS_8functionIFvvEEENS_9allocatorIS3_EEE5frontEv
	.weak_definition	__ZNSt3__15dequeINS_8functionIFvvEEENS_9allocatorIS3_EEE5frontEv
	.p2align	2
__ZNSt3__15dequeINS_8functionIFvvEEENS_9allocatorIS3_EEE5frontEv: ; @_ZNSt3__15dequeINS_8functionIFvvEEENS_9allocatorIS3_EEE5frontEv
	.cfi_startproc
; %bb.0:
	sub	sp, sp, #32
	.cfi_def_cfa_offset 32
	stp	x29, x30, [sp, #16]             ; 16-byte Folded Spill
	add	x29, sp, #16
	.cfi_def_cfa w29, 16
	.cfi_offset w30, -8
	.cfi_offset w29, -16
	str	x0, [sp, #8]
	ldr	x0, [sp, #8]
	str	x0, [sp]                        ; 8-byte Folded Spill
	bl	__ZNSt3__114__split_bufferIPNS_8functionIFvvEEENS_9allocatorIS4_EEE5beginB7v160006Ev
	ldr	x9, [sp]                        ; 8-byte Folded Reload
	ldr	x8, [x9, #32]
	mov	x11, #128
	udiv	x8, x8, x11
	ldr	x8, [x0, x8, lsl  #3]
	ldr	x9, [x9, #32]
	udiv	x10, x9, x11
	mul	x10, x10, x11
	subs	x9, x9, x10
	add	x0, x8, x9, lsl #5
	ldp	x29, x30, [sp, #16]             ; 16-byte Folded Reload
	add	sp, sp, #32
	ret
	.cfi_endproc
                                        ; -- End function
	.private_extern	__ZNSt3__114__split_bufferIPNS_8functionIFvvEEENS_9allocatorIS4_EEE5beginB7v160006Ev ; -- Begin function _ZNSt3__114__split_bufferIPNS_8functionIFvvEEENS_9allocatorIS4_EEE5beginB7v160006Ev
	.globl	__ZNSt3__114__split_bufferIPNS_8functionIFvvEEENS_9allocatorIS4_EEE5beginB7v160006Ev
	.weak_definition	__ZNSt3__114__split_bufferIPNS_8functionIFvvEEENS_9allocatorIS4_EEE5beginB7v160006Ev
	.p2align	2
__ZNSt3__114__split_bufferIPNS_8functionIFvvEEENS_9allocatorIS4_EEE5beginB7v160006Ev: ; @_ZNSt3__114__split_bufferIPNS_8functionIFvvEEENS_9allocatorIS4_EEE5beginB7v160006Ev
	.cfi_startproc
; %bb.0:
	sub	sp, sp, #16
	.cfi_def_cfa_offset 16
	str	x0, [sp, #8]
	ldr	x8, [sp, #8]
	ldr	x0, [x8, #8]
	add	sp, sp, #16
	ret
	.cfi_endproc
                                        ; -- End function
	.globl	__ZNSt3__18functionIFvvEEC2EOS2_ ; -- Begin function _ZNSt3__18functionIFvvEEC2EOS2_
	.weak_def_can_be_hidden	__ZNSt3__18functionIFvvEEC2EOS2_
	.p2align	2
__ZNSt3__18functionIFvvEEC2EOS2_:       ; @_ZNSt3__18functionIFvvEEC2EOS2_
	.cfi_startproc
; %bb.0:
	sub	sp, sp, #48
	.cfi_def_cfa_offset 48
	stp	x29, x30, [sp, #32]             ; 16-byte Folded Spill
	add	x29, sp, #32
	.cfi_def_cfa w29, 16
	.cfi_offset w30, -8
	.cfi_offset w29, -16
	stur	x0, [x29, #-8]
	str	x1, [sp, #16]
	ldur	x0, [x29, #-8]
	str	x0, [sp, #8]                    ; 8-byte Folded Spill
	ldr	x1, [sp, #16]
	bl	__ZNSt3__110__function12__value_funcIFvvEEC1B7v160006EOS3_
	ldr	x0, [sp, #8]                    ; 8-byte Folded Reload
	ldp	x29, x30, [sp, #32]             ; 16-byte Folded Reload
	add	sp, sp, #48
	ret
	.cfi_endproc
                                        ; -- End function
	.private_extern	__ZNSt3__110__function12__value_funcIFvvEEC1B7v160006EOS3_ ; -- Begin function _ZNSt3__110__function12__value_funcIFvvEEC1B7v160006EOS3_
	.globl	__ZNSt3__110__function12__value_funcIFvvEEC1B7v160006EOS3_
	.weak_def_can_be_hidden	__ZNSt3__110__function12__value_funcIFvvEEC1B7v160006EOS3_
	.p2align	2
__ZNSt3__110__function12__value_funcIFvvEEC1B7v160006EOS3_: ; @_ZNSt3__110__function12__value_funcIFvvEEC1B7v160006EOS3_
	.cfi_startproc
; %bb.0:
	sub	sp, sp, #48
	.cfi_def_cfa_offset 48
	stp	x29, x30, [sp, #32]             ; 16-byte Folded Spill
	add	x29, sp, #32
	.cfi_def_cfa w29, 16
	.cfi_offset w30, -8
	.cfi_offset w29, -16
	stur	x0, [x29, #-8]
	str	x1, [sp, #16]
	ldur	x0, [x29, #-8]
	str	x0, [sp, #8]                    ; 8-byte Folded Spill
	ldr	x1, [sp, #16]
	bl	__ZNSt3__110__function12__value_funcIFvvEEC2B7v160006EOS3_
	ldr	x0, [sp, #8]                    ; 8-byte Folded Reload
	ldp	x29, x30, [sp, #32]             ; 16-byte Folded Reload
	add	sp, sp, #48
	ret
	.cfi_endproc
                                        ; -- End function
	.private_extern	__ZNSt3__110__function12__value_funcIFvvEEC2B7v160006EOS3_ ; -- Begin function _ZNSt3__110__function12__value_funcIFvvEEC2B7v160006EOS3_
	.globl	__ZNSt3__110__function12__value_funcIFvvEEC2B7v160006EOS3_
	.weak_def_can_be_hidden	__ZNSt3__110__function12__value_funcIFvvEEC2B7v160006EOS3_
	.p2align	2
__ZNSt3__110__function12__value_funcIFvvEEC2B7v160006EOS3_: ; @_ZNSt3__110__function12__value_funcIFvvEEC2B7v160006EOS3_
Lfunc_begin17:
	.cfi_startproc
	.cfi_personality 155, ___gxx_personality_v0
	.cfi_lsda 16, Lexception17
; %bb.0:
	sub	sp, sp, #64
	.cfi_def_cfa_offset 64
	stp	x29, x30, [sp, #48]             ; 16-byte Folded Spill
	add	x29, sp, #48
	.cfi_def_cfa w29, 16
	.cfi_offset w30, -8
	.cfi_offset w29, -16
	stur	x0, [x29, #-16]
	str	x1, [sp, #24]
	ldur	x8, [x29, #-16]
	str	x8, [sp, #16]                   ; 8-byte Folded Spill
	stur	x8, [x29, #-8]
	ldr	x8, [sp, #24]
	ldr	x8, [x8, #24]
	subs	x8, x8, #0
	cset	w8, ne
	tbnz	w8, #0, LBB136_2
	b	LBB136_1
LBB136_1:
	ldr	x8, [sp, #16]                   ; 8-byte Folded Reload
                                        ; kill: def $x9 killed $xzr
	str	xzr, [x8, #24]
	b	LBB136_8
LBB136_2:
	ldr	x8, [sp, #24]
	ldr	x8, [x8, #24]
	ldr	x9, [sp, #24]
	subs	x8, x8, x9
	cset	w8, ne
	tbnz	w8, #0, LBB136_6
	b	LBB136_3
LBB136_3:
Ltmp118:
	ldr	x0, [sp, #16]                   ; 8-byte Folded Reload
	bl	__ZNSt3__110__function12__value_funcIFvvEE9__as_baseEPv
	str	x0, [sp, #8]                    ; 8-byte Folded Spill
Ltmp119:
	b	LBB136_4
LBB136_4:
	ldr	x8, [sp, #16]                   ; 8-byte Folded Reload
	ldr	x9, [sp, #8]                    ; 8-byte Folded Reload
	str	x9, [x8, #24]
	ldr	x9, [sp, #24]
	ldr	x0, [x9, #24]
	ldr	x1, [x8, #24]
	ldr	x8, [x0]
	ldr	x8, [x8, #24]
Ltmp120:
	blr	x8
Ltmp121:
	b	LBB136_5
LBB136_5:
	b	LBB136_7
LBB136_6:
	ldr	x9, [sp, #16]                   ; 8-byte Folded Reload
	ldr	x8, [sp, #24]
	ldr	x8, [x8, #24]
	str	x8, [x9, #24]
	ldr	x8, [sp, #24]
                                        ; kill: def $x9 killed $xzr
	str	xzr, [x8, #24]
	b	LBB136_7
LBB136_7:
	b	LBB136_8
LBB136_8:
	ldur	x0, [x29, #-8]
	ldp	x29, x30, [sp, #48]             ; 16-byte Folded Reload
	add	sp, sp, #64
	ret
LBB136_9:
Ltmp122:
	bl	___clang_call_terminate
Lfunc_end17:
	.cfi_endproc
	.section	__TEXT,__gcc_except_tab
	.p2align	2, 0x0
GCC_except_table136:
Lexception17:
	.byte	255                             ; @LPStart Encoding = omit
	.byte	155                             ; @TType Encoding = indirect pcrel sdata4
	.uleb128 Lttbase7-Lttbaseref7
Lttbaseref7:
	.byte	1                               ; Call site Encoding = uleb128
	.uleb128 Lcst_end17-Lcst_begin17
Lcst_begin17:
	.uleb128 Ltmp118-Lfunc_begin17          ; >> Call Site 1 <<
	.uleb128 Ltmp121-Ltmp118                ;   Call between Ltmp118 and Ltmp121
	.uleb128 Ltmp122-Lfunc_begin17          ;     jumps to Ltmp122
	.byte	1                               ;   On action: 1
Lcst_end17:
	.byte	1                               ; >> Action Record 1 <<
                                        ;   Catch TypeInfo 1
	.byte	0                               ;   No further actions
	.p2align	2, 0x0
                                        ; >> Catch TypeInfos <<
	.long	0                               ; TypeInfo 1
Lttbase7:
	.p2align	2, 0x0
                                        ; -- End function
	.section	__TEXT,__text,regular,pure_instructions
	.globl	__ZNSt3__110__function12__value_funcIFvvEE9__as_baseEPv ; -- Begin function _ZNSt3__110__function12__value_funcIFvvEE9__as_baseEPv
	.weak_definition	__ZNSt3__110__function12__value_funcIFvvEE9__as_baseEPv
	.p2align	2
__ZNSt3__110__function12__value_funcIFvvEE9__as_baseEPv: ; @_ZNSt3__110__function12__value_funcIFvvEE9__as_baseEPv
	.cfi_startproc
; %bb.0:
	sub	sp, sp, #16
	.cfi_def_cfa_offset 16
	str	x0, [sp, #8]
	ldr	x0, [sp, #8]
	add	sp, sp, #16
	ret
	.cfi_endproc
                                        ; -- End function
	.private_extern	__ZNSt3__15dequeINS_8functionIFvvEEENS_9allocatorIS3_EEE9pop_frontEv ; -- Begin function _ZNSt3__15dequeINS_8functionIFvvEEENS_9allocatorIS3_EEE9pop_frontEv
	.globl	__ZNSt3__15dequeINS_8functionIFvvEEENS_9allocatorIS3_EEE9pop_frontEv
	.weak_definition	__ZNSt3__15dequeINS_8functionIFvvEEENS_9allocatorIS3_EEE9pop_frontEv
	.p2align	2
__ZNSt3__15dequeINS_8functionIFvvEEENS_9allocatorIS3_EEE9pop_frontEv: ; @_ZNSt3__15dequeINS_8functionIFvvEEENS_9allocatorIS3_EEE9pop_frontEv
	.cfi_startproc
; %bb.0:
	sub	sp, sp, #48
	.cfi_def_cfa_offset 48
	stp	x29, x30, [sp, #32]             ; 16-byte Folded Spill
	add	x29, sp, #32
	.cfi_def_cfa w29, 16
	.cfi_offset w30, -8
	.cfi_offset w29, -16
	stur	x0, [x29, #-8]
	ldur	x0, [x29, #-8]
	str	x0, [sp, #8]                    ; 8-byte Folded Spill
	bl	__ZNSt3__15dequeINS_8functionIFvvEEENS_9allocatorIS3_EEE7__allocB7v160006Ev
	mov	x8, x0
	ldr	x0, [sp, #8]                    ; 8-byte Folded Reload
	str	x8, [sp, #16]
	ldr	x8, [sp, #16]
	str	x8, [sp]                        ; 8-byte Folded Spill
	bl	__ZNSt3__114__split_bufferIPNS_8functionIFvvEEENS_9allocatorIS4_EEE5beginB7v160006Ev
	ldr	x9, [sp, #8]                    ; 8-byte Folded Reload
	ldr	x8, [x9, #32]
	mov	x11, #128
	udiv	x8, x8, x11
	ldr	x8, [x0, x8, lsl  #3]
	ldr	x9, [x9, #32]
	udiv	x10, x9, x11
	mul	x10, x10, x11
	subs	x9, x9, x10
	add	x0, x8, x9, lsl #5
	bl	__ZNSt3__112__to_addressB7v160006INS_8functionIFvvEEEEEPT_S5_
	mov	x1, x0
	ldr	x0, [sp]                        ; 8-byte Folded Reload
	bl	__ZNSt3__116allocator_traitsINS_9allocatorINS_8functionIFvvEEEEEE7destroyB7v160006IS4_vEEvRS5_PT_
	ldr	x0, [sp, #8]                    ; 8-byte Folded Reload
	bl	__ZNSt3__15dequeINS_8functionIFvvEEENS_9allocatorIS3_EEE6__sizeB7v160006Ev
	mov	x9, x0
	ldr	x0, [sp, #8]                    ; 8-byte Folded Reload
	ldr	x8, [x9]
	subs	x8, x8, #1
	str	x8, [x9]
	ldr	x8, [x0, #32]
	add	x8, x8, #1
	str	x8, [x0, #32]
	mov	w8, #1
	and	w1, w8, #0x1
	bl	__ZNSt3__15dequeINS_8functionIFvvEEENS_9allocatorIS3_EEE26__maybe_remove_front_spareB7v160006Eb
	ldp	x29, x30, [sp, #32]             ; 16-byte Folded Reload
	add	sp, sp, #48
	ret
	.cfi_endproc
                                        ; -- End function
	.private_extern	__ZNSt3__15dequeINS_8functionIFvvEEENS_9allocatorIS3_EEE7__allocB7v160006Ev ; -- Begin function _ZNSt3__15dequeINS_8functionIFvvEEENS_9allocatorIS3_EEE7__allocB7v160006Ev
	.globl	__ZNSt3__15dequeINS_8functionIFvvEEENS_9allocatorIS3_EEE7__allocB7v160006Ev
	.weak_definition	__ZNSt3__15dequeINS_8functionIFvvEEENS_9allocatorIS3_EEE7__allocB7v160006Ev
	.p2align	2
__ZNSt3__15dequeINS_8functionIFvvEEENS_9allocatorIS3_EEE7__allocB7v160006Ev: ; @_ZNSt3__15dequeINS_8functionIFvvEEENS_9allocatorIS3_EEE7__allocB7v160006Ev
	.cfi_startproc
; %bb.0:
	sub	sp, sp, #32
	.cfi_def_cfa_offset 32
	stp	x29, x30, [sp, #16]             ; 16-byte Folded Spill
	add	x29, sp, #16
	.cfi_def_cfa w29, 16
	.cfi_offset w30, -8
	.cfi_offset w29, -16
	str	x0, [sp, #8]
	ldr	x8, [sp, #8]
	add	x0, x8, #40
	bl	__ZNSt3__117__compressed_pairImNS_9allocatorINS_8functionIFvvEEEEEE6secondB7v160006Ev
	ldp	x29, x30, [sp, #16]             ; 16-byte Folded Reload
	add	sp, sp, #32
	ret
	.cfi_endproc
                                        ; -- End function
	.globl	__ZNSt3__116allocator_traitsINS_9allocatorINS_8functionIFvvEEEEEE7destroyB7v160006IS4_vEEvRS5_PT_ ; -- Begin function _ZNSt3__116allocator_traitsINS_9allocatorINS_8functionIFvvEEEEEE7destroyB7v160006IS4_vEEvRS5_PT_
	.weak_definition	__ZNSt3__116allocator_traitsINS_9allocatorINS_8functionIFvvEEEEEE7destroyB7v160006IS4_vEEvRS5_PT_
	.p2align	2
__ZNSt3__116allocator_traitsINS_9allocatorINS_8functionIFvvEEEEEE7destroyB7v160006IS4_vEEvRS5_PT_: ; @_ZNSt3__116allocator_traitsINS_9allocatorINS_8functionIFvvEEEEEE7destroyB7v160006IS4_vEEvRS5_PT_
	.cfi_startproc
; %bb.0:
	sub	sp, sp, #32
	.cfi_def_cfa_offset 32
	stp	x29, x30, [sp, #16]             ; 16-byte Folded Spill
	add	x29, sp, #16
	.cfi_def_cfa w29, 16
	.cfi_offset w30, -8
	.cfi_offset w29, -16
	str	x0, [sp, #8]
	str	x1, [sp]
	ldr	x0, [sp, #8]
	ldr	x1, [sp]
	bl	__ZNSt3__19allocatorINS_8functionIFvvEEEE7destroyB7v160006EPS3_
	ldp	x29, x30, [sp, #16]             ; 16-byte Folded Reload
	add	sp, sp, #32
	ret
	.cfi_endproc
                                        ; -- End function
	.private_extern	__ZNSt3__112__to_addressB7v160006INS_8functionIFvvEEEEEPT_S5_ ; -- Begin function _ZNSt3__112__to_addressB7v160006INS_8functionIFvvEEEEEPT_S5_
	.globl	__ZNSt3__112__to_addressB7v160006INS_8functionIFvvEEEEEPT_S5_
	.weak_definition	__ZNSt3__112__to_addressB7v160006INS_8functionIFvvEEEEEPT_S5_
	.p2align	2
__ZNSt3__112__to_addressB7v160006INS_8functionIFvvEEEEEPT_S5_: ; @_ZNSt3__112__to_addressB7v160006INS_8functionIFvvEEEEEPT_S5_
	.cfi_startproc
; %bb.0:
	sub	sp, sp, #16
	.cfi_def_cfa_offset 16
	str	x0, [sp, #8]
	ldr	x0, [sp, #8]
	add	sp, sp, #16
	ret
	.cfi_endproc
                                        ; -- End function
	.private_extern	__ZNSt3__15dequeINS_8functionIFvvEEENS_9allocatorIS3_EEE6__sizeB7v160006Ev ; -- Begin function _ZNSt3__15dequeINS_8functionIFvvEEENS_9allocatorIS3_EEE6__sizeB7v160006Ev
	.globl	__ZNSt3__15dequeINS_8functionIFvvEEENS_9allocatorIS3_EEE6__sizeB7v160006Ev
	.weak_definition	__ZNSt3__15dequeINS_8functionIFvvEEENS_9allocatorIS3_EEE6__sizeB7v160006Ev
	.p2align	2
__ZNSt3__15dequeINS_8functionIFvvEEENS_9allocatorIS3_EEE6__sizeB7v160006Ev: ; @_ZNSt3__15dequeINS_8functionIFvvEEENS_9allocatorIS3_EEE6__sizeB7v160006Ev
	.cfi_startproc
; %bb.0:
	sub	sp, sp, #32
	.cfi_def_cfa_offset 32
	stp	x29, x30, [sp, #16]             ; 16-byte Folded Spill
	add	x29, sp, #16
	.cfi_def_cfa w29, 16
	.cfi_offset w30, -8
	.cfi_offset w29, -16
	str	x0, [sp, #8]
	ldr	x8, [sp, #8]
	add	x0, x8, #40
	bl	__ZNSt3__117__compressed_pairImNS_9allocatorINS_8functionIFvvEEEEEE5firstB7v160006Ev
	ldp	x29, x30, [sp, #16]             ; 16-byte Folded Reload
	add	sp, sp, #32
	ret
	.cfi_endproc
                                        ; -- End function
	.private_extern	__ZNSt3__15dequeINS_8functionIFvvEEENS_9allocatorIS3_EEE26__maybe_remove_front_spareB7v160006Eb ; -- Begin function _ZNSt3__15dequeINS_8functionIFvvEEENS_9allocatorIS3_EEE26__maybe_remove_front_spareB7v160006Eb
	.globl	__ZNSt3__15dequeINS_8functionIFvvEEENS_9allocatorIS3_EEE26__maybe_remove_front_spareB7v160006Eb
	.weak_definition	__ZNSt3__15dequeINS_8functionIFvvEEENS_9allocatorIS3_EEE26__maybe_remove_front_spareB7v160006Eb
	.p2align	2
__ZNSt3__15dequeINS_8functionIFvvEEENS_9allocatorIS3_EEE26__maybe_remove_front_spareB7v160006Eb: ; @_ZNSt3__15dequeINS_8functionIFvvEEENS_9allocatorIS3_EEE26__maybe_remove_front_spareB7v160006Eb
	.cfi_startproc
; %bb.0:
	sub	sp, sp, #64
	.cfi_def_cfa_offset 64
	stp	x29, x30, [sp, #48]             ; 16-byte Folded Spill
	add	x29, sp, #48
	.cfi_def_cfa w29, 16
	.cfi_offset w30, -8
	.cfi_offset w29, -16
	stur	x0, [x29, #-16]
	mov	w8, #1
	and	w8, w1, w8
	sturb	w8, [x29, #-17]
	ldur	x0, [x29, #-16]
	str	x0, [sp, #16]                   ; 8-byte Folded Spill
	bl	__ZNKSt3__15dequeINS_8functionIFvvEEENS_9allocatorIS3_EEE20__front_spare_blocksB7v160006Ev
	subs	x8, x0, #2
	cset	w8, hs
	tbnz	w8, #0, LBB143_3
	b	LBB143_1
LBB143_1:
	ldurb	w8, [x29, #-17]
	tbnz	w8, #0, LBB143_4
	b	LBB143_2
LBB143_2:
	ldr	x0, [sp, #16]                   ; 8-byte Folded Reload
	bl	__ZNKSt3__15dequeINS_8functionIFvvEEENS_9allocatorIS3_EEE20__front_spare_blocksB7v160006Ev
	subs	x8, x0, #0
	cset	w8, eq
	tbnz	w8, #0, LBB143_4
	b	LBB143_3
LBB143_3:
	ldr	x0, [sp, #16]                   ; 8-byte Folded Reload
	bl	__ZNSt3__15dequeINS_8functionIFvvEEENS_9allocatorIS3_EEE7__allocB7v160006Ev
	mov	x1, x0
	ldr	x0, [sp, #16]                   ; 8-byte Folded Reload
	str	x1, [sp, #8]                    ; 8-byte Folded Spill
	bl	__ZNSt3__114__split_bufferIPNS_8functionIFvvEEENS_9allocatorIS4_EEE5frontB7v160006Ev
	mov	x8, x0
	ldr	x0, [sp, #8]                    ; 8-byte Folded Reload
	ldr	x1, [x8]
	mov	x2, #128
	bl	__ZNSt3__116allocator_traitsINS_9allocatorINS_8functionIFvvEEEEEE10deallocateB7v160006ERS5_PS4_m
	ldr	x0, [sp, #16]                   ; 8-byte Folded Reload
	bl	__ZNSt3__114__split_bufferIPNS_8functionIFvvEEENS_9allocatorIS4_EEE9pop_frontB7v160006Ev
	ldr	x9, [sp, #16]                   ; 8-byte Folded Reload
	ldr	x8, [x9, #32]
	subs	x8, x8, #128
	str	x8, [x9, #32]
	mov	w8, #1
	and	w8, w8, #0x1
	and	w8, w8, #0x1
	sturb	w8, [x29, #-1]
	b	LBB143_5
LBB143_4:
	mov	w8, #0
	and	w8, w8, #0x1
	and	w8, w8, #0x1
	sturb	w8, [x29, #-1]
	b	LBB143_5
LBB143_5:
	ldurb	w8, [x29, #-1]
	and	w0, w8, #0x1
	ldp	x29, x30, [sp, #48]             ; 16-byte Folded Reload
	add	sp, sp, #64
	ret
	.cfi_endproc
                                        ; -- End function
	.private_extern	__ZNSt3__117__compressed_pairImNS_9allocatorINS_8functionIFvvEEEEEE6secondB7v160006Ev ; -- Begin function _ZNSt3__117__compressed_pairImNS_9allocatorINS_8functionIFvvEEEEEE6secondB7v160006Ev
	.globl	__ZNSt3__117__compressed_pairImNS_9allocatorINS_8functionIFvvEEEEEE6secondB7v160006Ev
	.weak_definition	__ZNSt3__117__compressed_pairImNS_9allocatorINS_8functionIFvvEEEEEE6secondB7v160006Ev
	.p2align	2
__ZNSt3__117__compressed_pairImNS_9allocatorINS_8functionIFvvEEEEEE6secondB7v160006Ev: ; @_ZNSt3__117__compressed_pairImNS_9allocatorINS_8functionIFvvEEEEEE6secondB7v160006Ev
	.cfi_startproc
; %bb.0:
	sub	sp, sp, #32
	.cfi_def_cfa_offset 32
	stp	x29, x30, [sp, #16]             ; 16-byte Folded Spill
	add	x29, sp, #16
	.cfi_def_cfa w29, 16
	.cfi_offset w30, -8
	.cfi_offset w29, -16
	str	x0, [sp, #8]
	ldr	x0, [sp, #8]
	bl	__ZNSt3__122__compressed_pair_elemINS_9allocatorINS_8functionIFvvEEEEELi1ELb1EE5__getB7v160006Ev
	ldp	x29, x30, [sp, #16]             ; 16-byte Folded Reload
	add	sp, sp, #32
	ret
	.cfi_endproc
                                        ; -- End function
	.private_extern	__ZNSt3__122__compressed_pair_elemINS_9allocatorINS_8functionIFvvEEEEELi1ELb1EE5__getB7v160006Ev ; -- Begin function _ZNSt3__122__compressed_pair_elemINS_9allocatorINS_8functionIFvvEEEEELi1ELb1EE5__getB7v160006Ev
	.globl	__ZNSt3__122__compressed_pair_elemINS_9allocatorINS_8functionIFvvEEEEELi1ELb1EE5__getB7v160006Ev
	.weak_definition	__ZNSt3__122__compressed_pair_elemINS_9allocatorINS_8functionIFvvEEEEELi1ELb1EE5__getB7v160006Ev
	.p2align	2
__ZNSt3__122__compressed_pair_elemINS_9allocatorINS_8functionIFvvEEEEELi1ELb1EE5__getB7v160006Ev: ; @_ZNSt3__122__compressed_pair_elemINS_9allocatorINS_8functionIFvvEEEEELi1ELb1EE5__getB7v160006Ev
	.cfi_startproc
; %bb.0:
	sub	sp, sp, #16
	.cfi_def_cfa_offset 16
	str	x0, [sp, #8]
	ldr	x0, [sp, #8]
	add	sp, sp, #16
	ret
	.cfi_endproc
                                        ; -- End function
	.private_extern	__ZNSt3__19allocatorINS_8functionIFvvEEEE7destroyB7v160006EPS3_ ; -- Begin function _ZNSt3__19allocatorINS_8functionIFvvEEEE7destroyB7v160006EPS3_
	.globl	__ZNSt3__19allocatorINS_8functionIFvvEEEE7destroyB7v160006EPS3_
	.weak_definition	__ZNSt3__19allocatorINS_8functionIFvvEEEE7destroyB7v160006EPS3_
	.p2align	2
__ZNSt3__19allocatorINS_8functionIFvvEEEE7destroyB7v160006EPS3_: ; @_ZNSt3__19allocatorINS_8functionIFvvEEEE7destroyB7v160006EPS3_
	.cfi_startproc
; %bb.0:
	sub	sp, sp, #32
	.cfi_def_cfa_offset 32
	stp	x29, x30, [sp, #16]             ; 16-byte Folded Spill
	add	x29, sp, #16
	.cfi_def_cfa w29, 16
	.cfi_offset w30, -8
	.cfi_offset w29, -16
	str	x0, [sp, #8]
	str	x1, [sp]
	ldr	x0, [sp]
	bl	__ZNSt3__18functionIFvvEED1Ev
	ldp	x29, x30, [sp, #16]             ; 16-byte Folded Reload
	add	sp, sp, #32
	ret
	.cfi_endproc
                                        ; -- End function
	.private_extern	__ZNSt3__117__compressed_pairImNS_9allocatorINS_8functionIFvvEEEEEE5firstB7v160006Ev ; -- Begin function _ZNSt3__117__compressed_pairImNS_9allocatorINS_8functionIFvvEEEEEE5firstB7v160006Ev
	.globl	__ZNSt3__117__compressed_pairImNS_9allocatorINS_8functionIFvvEEEEEE5firstB7v160006Ev
	.weak_definition	__ZNSt3__117__compressed_pairImNS_9allocatorINS_8functionIFvvEEEEEE5firstB7v160006Ev
	.p2align	2
__ZNSt3__117__compressed_pairImNS_9allocatorINS_8functionIFvvEEEEEE5firstB7v160006Ev: ; @_ZNSt3__117__compressed_pairImNS_9allocatorINS_8functionIFvvEEEEEE5firstB7v160006Ev
	.cfi_startproc
; %bb.0:
	sub	sp, sp, #32
	.cfi_def_cfa_offset 32
	stp	x29, x30, [sp, #16]             ; 16-byte Folded Spill
	add	x29, sp, #16
	.cfi_def_cfa w29, 16
	.cfi_offset w30, -8
	.cfi_offset w29, -16
	str	x0, [sp, #8]
	ldr	x0, [sp, #8]
	bl	__ZNSt3__122__compressed_pair_elemImLi0ELb0EE5__getB7v160006Ev
	ldp	x29, x30, [sp, #16]             ; 16-byte Folded Reload
	add	sp, sp, #32
	ret
	.cfi_endproc
                                        ; -- End function
	.private_extern	__ZNSt3__122__compressed_pair_elemImLi0ELb0EE5__getB7v160006Ev ; -- Begin function _ZNSt3__122__compressed_pair_elemImLi0ELb0EE5__getB7v160006Ev
	.globl	__ZNSt3__122__compressed_pair_elemImLi0ELb0EE5__getB7v160006Ev
	.weak_definition	__ZNSt3__122__compressed_pair_elemImLi0ELb0EE5__getB7v160006Ev
	.p2align	2
__ZNSt3__122__compressed_pair_elemImLi0ELb0EE5__getB7v160006Ev: ; @_ZNSt3__122__compressed_pair_elemImLi0ELb0EE5__getB7v160006Ev
	.cfi_startproc
; %bb.0:
	sub	sp, sp, #16
	.cfi_def_cfa_offset 16
	str	x0, [sp, #8]
	ldr	x0, [sp, #8]
	add	sp, sp, #16
	ret
	.cfi_endproc
                                        ; -- End function
	.private_extern	__ZNKSt3__15dequeINS_8functionIFvvEEENS_9allocatorIS3_EEE20__front_spare_blocksB7v160006Ev ; -- Begin function _ZNKSt3__15dequeINS_8functionIFvvEEENS_9allocatorIS3_EEE20__front_spare_blocksB7v160006Ev
	.globl	__ZNKSt3__15dequeINS_8functionIFvvEEENS_9allocatorIS3_EEE20__front_spare_blocksB7v160006Ev
	.weak_definition	__ZNKSt3__15dequeINS_8functionIFvvEEENS_9allocatorIS3_EEE20__front_spare_blocksB7v160006Ev
	.p2align	2
__ZNKSt3__15dequeINS_8functionIFvvEEENS_9allocatorIS3_EEE20__front_spare_blocksB7v160006Ev: ; @_ZNKSt3__15dequeINS_8functionIFvvEEENS_9allocatorIS3_EEE20__front_spare_blocksB7v160006Ev
	.cfi_startproc
; %bb.0:
	sub	sp, sp, #32
	.cfi_def_cfa_offset 32
	stp	x29, x30, [sp, #16]             ; 16-byte Folded Spill
	add	x29, sp, #16
	.cfi_def_cfa w29, 16
	.cfi_offset w30, -8
	.cfi_offset w29, -16
	str	x0, [sp, #8]
	ldr	x0, [sp, #8]
	bl	__ZNKSt3__15dequeINS_8functionIFvvEEENS_9allocatorIS3_EEE13__front_spareB7v160006Ev
	mov	x8, #128
	udiv	x0, x0, x8
	ldp	x29, x30, [sp, #16]             ; 16-byte Folded Reload
	add	sp, sp, #32
	ret
	.cfi_endproc
                                        ; -- End function
	.private_extern	__ZNSt3__116allocator_traitsINS_9allocatorINS_8functionIFvvEEEEEE10deallocateB7v160006ERS5_PS4_m ; -- Begin function _ZNSt3__116allocator_traitsINS_9allocatorINS_8functionIFvvEEEEEE10deallocateB7v160006ERS5_PS4_m
	.globl	__ZNSt3__116allocator_traitsINS_9allocatorINS_8functionIFvvEEEEEE10deallocateB7v160006ERS5_PS4_m
	.weak_definition	__ZNSt3__116allocator_traitsINS_9allocatorINS_8functionIFvvEEEEEE10deallocateB7v160006ERS5_PS4_m
	.p2align	2
__ZNSt3__116allocator_traitsINS_9allocatorINS_8functionIFvvEEEEEE10deallocateB7v160006ERS5_PS4_m: ; @_ZNSt3__116allocator_traitsINS_9allocatorINS_8functionIFvvEEEEEE10deallocateB7v160006ERS5_PS4_m
	.cfi_startproc
; %bb.0:
	sub	sp, sp, #48
	.cfi_def_cfa_offset 48
	stp	x29, x30, [sp, #32]             ; 16-byte Folded Spill
	add	x29, sp, #32
	.cfi_def_cfa w29, 16
	.cfi_offset w30, -8
	.cfi_offset w29, -16
	stur	x0, [x29, #-8]
	str	x1, [sp, #16]
	str	x2, [sp, #8]
	ldur	x0, [x29, #-8]
	ldr	x1, [sp, #16]
	ldr	x2, [sp, #8]
	bl	__ZNSt3__19allocatorINS_8functionIFvvEEEE10deallocateB7v160006EPS3_m
	ldp	x29, x30, [sp, #32]             ; 16-byte Folded Reload
	add	sp, sp, #48
	ret
	.cfi_endproc
                                        ; -- End function
	.private_extern	__ZNSt3__114__split_bufferIPNS_8functionIFvvEEENS_9allocatorIS4_EEE5frontB7v160006Ev ; -- Begin function _ZNSt3__114__split_bufferIPNS_8functionIFvvEEENS_9allocatorIS4_EEE5frontB7v160006Ev
	.globl	__ZNSt3__114__split_bufferIPNS_8functionIFvvEEENS_9allocatorIS4_EEE5frontB7v160006Ev
	.weak_definition	__ZNSt3__114__split_bufferIPNS_8functionIFvvEEENS_9allocatorIS4_EEE5frontB7v160006Ev
	.p2align	2
__ZNSt3__114__split_bufferIPNS_8functionIFvvEEENS_9allocatorIS4_EEE5frontB7v160006Ev: ; @_ZNSt3__114__split_bufferIPNS_8functionIFvvEEENS_9allocatorIS4_EEE5frontB7v160006Ev
	.cfi_startproc
; %bb.0:
	sub	sp, sp, #16
	.cfi_def_cfa_offset 16
	str	x0, [sp, #8]
	ldr	x8, [sp, #8]
	ldr	x0, [x8, #8]
	add	sp, sp, #16
	ret
	.cfi_endproc
                                        ; -- End function
	.private_extern	__ZNSt3__114__split_bufferIPNS_8functionIFvvEEENS_9allocatorIS4_EEE9pop_frontB7v160006Ev ; -- Begin function _ZNSt3__114__split_bufferIPNS_8functionIFvvEEENS_9allocatorIS4_EEE9pop_frontB7v160006Ev
	.globl	__ZNSt3__114__split_bufferIPNS_8functionIFvvEEENS_9allocatorIS4_EEE9pop_frontB7v160006Ev
	.weak_definition	__ZNSt3__114__split_bufferIPNS_8functionIFvvEEENS_9allocatorIS4_EEE9pop_frontB7v160006Ev
	.p2align	2
__ZNSt3__114__split_bufferIPNS_8functionIFvvEEENS_9allocatorIS4_EEE9pop_frontB7v160006Ev: ; @_ZNSt3__114__split_bufferIPNS_8functionIFvvEEENS_9allocatorIS4_EEE9pop_frontB7v160006Ev
	.cfi_startproc
; %bb.0:
	sub	sp, sp, #32
	.cfi_def_cfa_offset 32
	stp	x29, x30, [sp, #16]             ; 16-byte Folded Spill
	add	x29, sp, #16
	.cfi_def_cfa w29, 16
	.cfi_offset w30, -8
	.cfi_offset w29, -16
	str	x0, [sp, #8]
	ldr	x0, [sp, #8]
	ldr	x8, [x0, #8]
	add	x1, x8, #8
	bl	__ZNSt3__114__split_bufferIPNS_8functionIFvvEEENS_9allocatorIS4_EEE19__destruct_at_beginB7v160006EPS4_
	ldp	x29, x30, [sp, #16]             ; 16-byte Folded Reload
	add	sp, sp, #32
	ret
	.cfi_endproc
                                        ; -- End function
	.private_extern	__ZNKSt3__15dequeINS_8functionIFvvEEENS_9allocatorIS3_EEE13__front_spareB7v160006Ev ; -- Begin function _ZNKSt3__15dequeINS_8functionIFvvEEENS_9allocatorIS3_EEE13__front_spareB7v160006Ev
	.globl	__ZNKSt3__15dequeINS_8functionIFvvEEENS_9allocatorIS3_EEE13__front_spareB7v160006Ev
	.weak_definition	__ZNKSt3__15dequeINS_8functionIFvvEEENS_9allocatorIS3_EEE13__front_spareB7v160006Ev
	.p2align	2
__ZNKSt3__15dequeINS_8functionIFvvEEENS_9allocatorIS3_EEE13__front_spareB7v160006Ev: ; @_ZNKSt3__15dequeINS_8functionIFvvEEENS_9allocatorIS3_EEE13__front_spareB7v160006Ev
	.cfi_startproc
; %bb.0:
	sub	sp, sp, #16
	.cfi_def_cfa_offset 16
	str	x0, [sp, #8]
	ldr	x8, [sp, #8]
	ldr	x0, [x8, #32]
	add	sp, sp, #16
	ret
	.cfi_endproc
                                        ; -- End function
	.private_extern	__ZNSt3__19allocatorINS_8functionIFvvEEEE10deallocateB7v160006EPS3_m ; -- Begin function _ZNSt3__19allocatorINS_8functionIFvvEEEE10deallocateB7v160006EPS3_m
	.globl	__ZNSt3__19allocatorINS_8functionIFvvEEEE10deallocateB7v160006EPS3_m
	.weak_definition	__ZNSt3__19allocatorINS_8functionIFvvEEEE10deallocateB7v160006EPS3_m
	.p2align	2
__ZNSt3__19allocatorINS_8functionIFvvEEEE10deallocateB7v160006EPS3_m: ; @_ZNSt3__19allocatorINS_8functionIFvvEEEE10deallocateB7v160006EPS3_m
Lfunc_begin18:
	.cfi_startproc
	.cfi_personality 155, ___gxx_personality_v0
	.cfi_lsda 16, Lexception18
; %bb.0:
	sub	sp, sp, #48
	.cfi_def_cfa_offset 48
	stp	x29, x30, [sp, #32]             ; 16-byte Folded Spill
	add	x29, sp, #32
	.cfi_def_cfa w29, 16
	.cfi_offset w30, -8
	.cfi_offset w29, -16
	stur	x0, [x29, #-8]
	str	x1, [sp, #16]
	str	x2, [sp, #8]
	ldr	x0, [sp, #16]
	ldr	x8, [sp, #8]
	lsl	x1, x8, #5
Ltmp129:
	mov	x2, #8
	bl	__ZNSt3__119__libcpp_deallocateB7v160006EPvmm
Ltmp130:
	b	LBB154_1
LBB154_1:
	ldp	x29, x30, [sp, #32]             ; 16-byte Folded Reload
	add	sp, sp, #48
	ret
LBB154_2:
Ltmp131:
	bl	___clang_call_terminate
Lfunc_end18:
	.cfi_endproc
	.section	__TEXT,__gcc_except_tab
	.p2align	2, 0x0
GCC_except_table154:
Lexception18:
	.byte	255                             ; @LPStart Encoding = omit
	.byte	155                             ; @TType Encoding = indirect pcrel sdata4
	.uleb128 Lttbase8-Lttbaseref8
Lttbaseref8:
	.byte	1                               ; Call site Encoding = uleb128
	.uleb128 Lcst_end18-Lcst_begin18
Lcst_begin18:
	.uleb128 Ltmp129-Lfunc_begin18          ; >> Call Site 1 <<
	.uleb128 Ltmp130-Ltmp129                ;   Call between Ltmp129 and Ltmp130
	.uleb128 Ltmp131-Lfunc_begin18          ;     jumps to Ltmp131
	.byte	1                               ;   On action: 1
Lcst_end18:
	.byte	1                               ; >> Action Record 1 <<
                                        ;   Catch TypeInfo 1
	.byte	0                               ;   No further actions
	.p2align	2, 0x0
                                        ; >> Catch TypeInfos <<
	.long	0                               ; TypeInfo 1
Lttbase8:
	.p2align	2, 0x0
                                        ; -- End function
	.section	__TEXT,__text,regular,pure_instructions
	.private_extern	__ZNSt3__119__libcpp_deallocateB7v160006EPvmm ; -- Begin function _ZNSt3__119__libcpp_deallocateB7v160006EPvmm
	.globl	__ZNSt3__119__libcpp_deallocateB7v160006EPvmm
	.weak_definition	__ZNSt3__119__libcpp_deallocateB7v160006EPvmm
	.p2align	2
__ZNSt3__119__libcpp_deallocateB7v160006EPvmm: ; @_ZNSt3__119__libcpp_deallocateB7v160006EPvmm
	.cfi_startproc
; %bb.0:
	sub	sp, sp, #48
	.cfi_def_cfa_offset 48
	stp	x29, x30, [sp, #32]             ; 16-byte Folded Spill
	add	x29, sp, #32
	.cfi_def_cfa w29, 16
	.cfi_offset w30, -8
	.cfi_offset w29, -16
	stur	x0, [x29, #-8]
	str	x1, [sp, #16]
	str	x2, [sp, #8]
	ldr	x0, [sp, #8]
	bl	__ZNSt3__124__is_overaligned_for_newB7v160006Em
	tbz	w0, #0, LBB155_2
	b	LBB155_1
LBB155_1:
	ldr	x8, [sp, #8]
	str	x8, [sp]
	ldur	x0, [x29, #-8]
	ldr	x1, [sp, #16]
	ldr	x2, [sp]
	bl	__ZNSt3__127__do_deallocate_handle_sizeB7v160006IJSt11align_val_tEEEvPvmDpT_
	b	LBB155_3
LBB155_2:
	ldur	x0, [x29, #-8]
	ldr	x1, [sp, #16]
	bl	__ZNSt3__127__do_deallocate_handle_sizeB7v160006IJEEEvPvmDpT_
	b	LBB155_3
LBB155_3:
	ldp	x29, x30, [sp, #32]             ; 16-byte Folded Reload
	add	sp, sp, #48
	ret
	.cfi_endproc
                                        ; -- End function
	.private_extern	__ZNSt3__124__is_overaligned_for_newB7v160006Em ; -- Begin function _ZNSt3__124__is_overaligned_for_newB7v160006Em
	.globl	__ZNSt3__124__is_overaligned_for_newB7v160006Em
	.weak_definition	__ZNSt3__124__is_overaligned_for_newB7v160006Em
	.p2align	2
__ZNSt3__124__is_overaligned_for_newB7v160006Em: ; @_ZNSt3__124__is_overaligned_for_newB7v160006Em
	.cfi_startproc
; %bb.0:
	sub	sp, sp, #16
	.cfi_def_cfa_offset 16
	str	x0, [sp, #8]
	ldr	x8, [sp, #8]
	subs	x8, x8, #16
	cset	w8, hi
	and	w0, w8, #0x1
	add	sp, sp, #16
	ret
	.cfi_endproc
                                        ; -- End function
	.private_extern	__ZNSt3__127__do_deallocate_handle_sizeB7v160006IJSt11align_val_tEEEvPvmDpT_ ; -- Begin function _ZNSt3__127__do_deallocate_handle_sizeB7v160006IJSt11align_val_tEEEvPvmDpT_
	.globl	__ZNSt3__127__do_deallocate_handle_sizeB7v160006IJSt11align_val_tEEEvPvmDpT_
	.weak_definition	__ZNSt3__127__do_deallocate_handle_sizeB7v160006IJSt11align_val_tEEEvPvmDpT_
	.p2align	2
__ZNSt3__127__do_deallocate_handle_sizeB7v160006IJSt11align_val_tEEEvPvmDpT_: ; @_ZNSt3__127__do_deallocate_handle_sizeB7v160006IJSt11align_val_tEEEvPvmDpT_
	.cfi_startproc
; %bb.0:
	sub	sp, sp, #48
	.cfi_def_cfa_offset 48
	stp	x29, x30, [sp, #32]             ; 16-byte Folded Spill
	add	x29, sp, #32
	.cfi_def_cfa w29, 16
	.cfi_offset w30, -8
	.cfi_offset w29, -16
	stur	x0, [x29, #-8]
	str	x1, [sp, #16]
	str	x2, [sp, #8]
	ldur	x0, [x29, #-8]
	ldr	x1, [sp, #8]
	bl	__ZNSt3__124__libcpp_operator_deleteB7v160006IJPvSt11align_val_tEEEvDpT_
	ldp	x29, x30, [sp, #32]             ; 16-byte Folded Reload
	add	sp, sp, #48
	ret
	.cfi_endproc
                                        ; -- End function
	.private_extern	__ZNSt3__127__do_deallocate_handle_sizeB7v160006IJEEEvPvmDpT_ ; -- Begin function _ZNSt3__127__do_deallocate_handle_sizeB7v160006IJEEEvPvmDpT_
	.globl	__ZNSt3__127__do_deallocate_handle_sizeB7v160006IJEEEvPvmDpT_
	.weak_definition	__ZNSt3__127__do_deallocate_handle_sizeB7v160006IJEEEvPvmDpT_
	.p2align	2
__ZNSt3__127__do_deallocate_handle_sizeB7v160006IJEEEvPvmDpT_: ; @_ZNSt3__127__do_deallocate_handle_sizeB7v160006IJEEEvPvmDpT_
	.cfi_startproc
; %bb.0:
	sub	sp, sp, #32
	.cfi_def_cfa_offset 32
	stp	x29, x30, [sp, #16]             ; 16-byte Folded Spill
	add	x29, sp, #16
	.cfi_def_cfa w29, 16
	.cfi_offset w30, -8
	.cfi_offset w29, -16
	str	x0, [sp, #8]
	str	x1, [sp]
	ldr	x0, [sp, #8]
	bl	__ZNSt3__124__libcpp_operator_deleteB7v160006IJPvEEEvDpT_
	ldp	x29, x30, [sp, #16]             ; 16-byte Folded Reload
	add	sp, sp, #32
	ret
	.cfi_endproc
                                        ; -- End function
	.private_extern	__ZNSt3__124__libcpp_operator_deleteB7v160006IJPvSt11align_val_tEEEvDpT_ ; -- Begin function _ZNSt3__124__libcpp_operator_deleteB7v160006IJPvSt11align_val_tEEEvDpT_
	.globl	__ZNSt3__124__libcpp_operator_deleteB7v160006IJPvSt11align_val_tEEEvDpT_
	.weak_definition	__ZNSt3__124__libcpp_operator_deleteB7v160006IJPvSt11align_val_tEEEvDpT_
	.p2align	2
__ZNSt3__124__libcpp_operator_deleteB7v160006IJPvSt11align_val_tEEEvDpT_: ; @_ZNSt3__124__libcpp_operator_deleteB7v160006IJPvSt11align_val_tEEEvDpT_
	.cfi_startproc
; %bb.0:
	sub	sp, sp, #32
	.cfi_def_cfa_offset 32
	stp	x29, x30, [sp, #16]             ; 16-byte Folded Spill
	add	x29, sp, #16
	.cfi_def_cfa w29, 16
	.cfi_offset w30, -8
	.cfi_offset w29, -16
	str	x0, [sp, #8]
	str	x1, [sp]
	ldr	x0, [sp, #8]
	ldr	x1, [sp]
	bl	__ZdlPvSt11align_val_t
	ldp	x29, x30, [sp, #16]             ; 16-byte Folded Reload
	add	sp, sp, #32
	ret
	.cfi_endproc
                                        ; -- End function
	.private_extern	__ZNSt3__124__libcpp_operator_deleteB7v160006IJPvEEEvDpT_ ; -- Begin function _ZNSt3__124__libcpp_operator_deleteB7v160006IJPvEEEvDpT_
	.globl	__ZNSt3__124__libcpp_operator_deleteB7v160006IJPvEEEvDpT_
	.weak_definition	__ZNSt3__124__libcpp_operator_deleteB7v160006IJPvEEEvDpT_
	.p2align	2
__ZNSt3__124__libcpp_operator_deleteB7v160006IJPvEEEvDpT_: ; @_ZNSt3__124__libcpp_operator_deleteB7v160006IJPvEEEvDpT_
	.cfi_startproc
; %bb.0:
	sub	sp, sp, #32
	.cfi_def_cfa_offset 32
	stp	x29, x30, [sp, #16]             ; 16-byte Folded Spill
	add	x29, sp, #16
	.cfi_def_cfa w29, 16
	.cfi_offset w30, -8
	.cfi_offset w29, -16
	str	x0, [sp, #8]
	ldr	x0, [sp, #8]
	bl	__ZdlPv
	ldp	x29, x30, [sp, #16]             ; 16-byte Folded Reload
	add	sp, sp, #32
	ret
	.cfi_endproc
                                        ; -- End function
	.private_extern	__ZNSt3__114__split_bufferIPNS_8functionIFvvEEENS_9allocatorIS4_EEE19__destruct_at_beginB7v160006EPS4_ ; -- Begin function _ZNSt3__114__split_bufferIPNS_8functionIFvvEEENS_9allocatorIS4_EEE19__destruct_at_beginB7v160006EPS4_
	.globl	__ZNSt3__114__split_bufferIPNS_8functionIFvvEEENS_9allocatorIS4_EEE19__destruct_at_beginB7v160006EPS4_
	.weak_definition	__ZNSt3__114__split_bufferIPNS_8functionIFvvEEENS_9allocatorIS4_EEE19__destruct_at_beginB7v160006EPS4_
	.p2align	2
__ZNSt3__114__split_bufferIPNS_8functionIFvvEEENS_9allocatorIS4_EEE19__destruct_at_beginB7v160006EPS4_: ; @_ZNSt3__114__split_bufferIPNS_8functionIFvvEEENS_9allocatorIS4_EEE19__destruct_at_beginB7v160006EPS4_
	.cfi_startproc
; %bb.0:
	sub	sp, sp, #48
	.cfi_def_cfa_offset 48
	stp	x29, x30, [sp, #32]             ; 16-byte Folded Spill
	add	x29, sp, #32
	.cfi_def_cfa w29, 16
	.cfi_offset w30, -8
	.cfi_offset w29, -16
	stur	x0, [x29, #-8]
	str	x1, [sp, #16]
	ldur	x0, [x29, #-8]
	ldr	x1, [sp, #16]
	bl	__ZNSt3__114__split_bufferIPNS_8functionIFvvEEENS_9allocatorIS4_EEE19__destruct_at_beginEPS4_NS_17integral_constantIbLb1EEE
	ldp	x29, x30, [sp, #32]             ; 16-byte Folded Reload
	add	sp, sp, #48
	ret
	.cfi_endproc
                                        ; -- End function
	.private_extern	__ZNSt3__114__split_bufferIPNS_8functionIFvvEEENS_9allocatorIS4_EEE19__destruct_at_beginEPS4_NS_17integral_constantIbLb1EEE ; -- Begin function _ZNSt3__114__split_bufferIPNS_8functionIFvvEEENS_9allocatorIS4_EEE19__destruct_at_beginEPS4_NS_17integral_constantIbLb1EEE
	.globl	__ZNSt3__114__split_bufferIPNS_8functionIFvvEEENS_9allocatorIS4_EEE19__destruct_at_beginEPS4_NS_17integral_constantIbLb1EEE
	.weak_definition	__ZNSt3__114__split_bufferIPNS_8functionIFvvEEENS_9allocatorIS4_EEE19__destruct_at_beginEPS4_NS_17integral_constantIbLb1EEE
	.p2align	2
__ZNSt3__114__split_bufferIPNS_8functionIFvvEEENS_9allocatorIS4_EEE19__destruct_at_beginEPS4_NS_17integral_constantIbLb1EEE: ; @_ZNSt3__114__split_bufferIPNS_8functionIFvvEEENS_9allocatorIS4_EEE19__destruct_at_beginEPS4_NS_17integral_constantIbLb1EEE
	.cfi_startproc
; %bb.0:
	sub	sp, sp, #32
	.cfi_def_cfa_offset 32
	str	x0, [sp, #16]
	str	x1, [sp, #8]
	ldr	x9, [sp, #16]
	ldr	x8, [sp, #8]
	str	x8, [x9, #8]
	add	sp, sp, #32
	ret
	.cfi_endproc
                                        ; -- End function
	.private_extern	__ZNKSt3__110__function12__value_funcIFvvEEclB7v160006Ev ; -- Begin function _ZNKSt3__110__function12__value_funcIFvvEEclB7v160006Ev
	.globl	__ZNKSt3__110__function12__value_funcIFvvEEclB7v160006Ev
	.weak_definition	__ZNKSt3__110__function12__value_funcIFvvEEclB7v160006Ev
	.p2align	2
__ZNKSt3__110__function12__value_funcIFvvEEclB7v160006Ev: ; @_ZNKSt3__110__function12__value_funcIFvvEEclB7v160006Ev
	.cfi_startproc
; %bb.0:
	sub	sp, sp, #32
	.cfi_def_cfa_offset 32
	stp	x29, x30, [sp, #16]             ; 16-byte Folded Spill
	add	x29, sp, #16
	.cfi_def_cfa w29, 16
	.cfi_offset w30, -8
	.cfi_offset w29, -16
	str	x0, [sp, #8]
	ldr	x8, [sp, #8]
	str	x8, [sp]                        ; 8-byte Folded Spill
	ldr	x8, [x8, #24]
	subs	x8, x8, #0
	cset	w8, ne
	tbnz	w8, #0, LBB163_2
	b	LBB163_1
LBB163_1:
	bl	__ZNSt3__125__throw_bad_function_callB7v160006Ev
LBB163_2:
	ldr	x8, [sp]                        ; 8-byte Folded Reload
	ldr	x0, [x8, #24]
	ldr	x8, [x0]
	ldr	x8, [x8, #48]
	blr	x8
	ldp	x29, x30, [sp, #16]             ; 16-byte Folded Reload
	add	sp, sp, #32
	ret
	.cfi_endproc
                                        ; -- End function
	.private_extern	__ZNSt3__125__throw_bad_function_callB7v160006Ev ; -- Begin function _ZNSt3__125__throw_bad_function_callB7v160006Ev
	.globl	__ZNSt3__125__throw_bad_function_callB7v160006Ev
	.weak_definition	__ZNSt3__125__throw_bad_function_callB7v160006Ev
	.p2align	2
__ZNSt3__125__throw_bad_function_callB7v160006Ev: ; @_ZNSt3__125__throw_bad_function_callB7v160006Ev
	.cfi_startproc
; %bb.0:
	sub	sp, sp, #32
	.cfi_def_cfa_offset 32
	stp	x29, x30, [sp, #16]             ; 16-byte Folded Spill
	add	x29, sp, #16
	.cfi_def_cfa w29, 16
	.cfi_offset w30, -8
	.cfi_offset w29, -16
	mov	x0, #8
	bl	___cxa_allocate_exception
	str	x0, [sp, #8]                    ; 8-byte Folded Spill
	str	xzr, [x0]
	bl	__ZNSt3__117bad_function_callC1Ev
	ldr	x0, [sp, #8]                    ; 8-byte Folded Reload
	adrp	x1, __ZTINSt3__117bad_function_callE@PAGE
	add	x1, x1, __ZTINSt3__117bad_function_callE@PAGEOFF
	adrp	x2, __ZNSt3__117bad_function_callD1Ev@GOTPAGE
	ldr	x2, [x2, __ZNSt3__117bad_function_callD1Ev@GOTPAGEOFF]
	bl	___cxa_throw
	.cfi_endproc
                                        ; -- End function
	.globl	__ZNSt3__117bad_function_callC1Ev ; -- Begin function _ZNSt3__117bad_function_callC1Ev
	.weak_def_can_be_hidden	__ZNSt3__117bad_function_callC1Ev
	.p2align	2
__ZNSt3__117bad_function_callC1Ev:      ; @_ZNSt3__117bad_function_callC1Ev
	.cfi_startproc
; %bb.0:
	sub	sp, sp, #32
	.cfi_def_cfa_offset 32
	stp	x29, x30, [sp, #16]             ; 16-byte Folded Spill
	add	x29, sp, #16
	.cfi_def_cfa w29, 16
	.cfi_offset w30, -8
	.cfi_offset w29, -16
	str	x0, [sp, #8]
	ldr	x0, [sp, #8]
	str	x0, [sp]                        ; 8-byte Folded Spill
	bl	__ZNSt3__117bad_function_callC2Ev
	ldr	x0, [sp]                        ; 8-byte Folded Reload
	ldp	x29, x30, [sp, #16]             ; 16-byte Folded Reload
	add	sp, sp, #32
	ret
	.cfi_endproc
                                        ; -- End function
	.globl	__ZNSt3__117bad_function_callD1Ev ; -- Begin function _ZNSt3__117bad_function_callD1Ev
	.weak_def_can_be_hidden	__ZNSt3__117bad_function_callD1Ev
	.p2align	2
__ZNSt3__117bad_function_callD1Ev:      ; @_ZNSt3__117bad_function_callD1Ev
	.cfi_startproc
; %bb.0:
	sub	sp, sp, #32
	.cfi_def_cfa_offset 32
	stp	x29, x30, [sp, #16]             ; 16-byte Folded Spill
	add	x29, sp, #16
	.cfi_def_cfa w29, 16
	.cfi_offset w30, -8
	.cfi_offset w29, -16
	str	x0, [sp, #8]
	ldr	x0, [sp, #8]
	str	x0, [sp]                        ; 8-byte Folded Spill
	bl	__ZNSt3__117bad_function_callD2Ev
	ldr	x0, [sp]                        ; 8-byte Folded Reload
	ldp	x29, x30, [sp, #16]             ; 16-byte Folded Reload
	add	sp, sp, #32
	ret
	.cfi_endproc
                                        ; -- End function
	.globl	__ZNSt3__117bad_function_callC2Ev ; -- Begin function _ZNSt3__117bad_function_callC2Ev
	.weak_def_can_be_hidden	__ZNSt3__117bad_function_callC2Ev
	.p2align	2
__ZNSt3__117bad_function_callC2Ev:      ; @_ZNSt3__117bad_function_callC2Ev
	.cfi_startproc
; %bb.0:
	sub	sp, sp, #48
	.cfi_def_cfa_offset 48
	stp	x29, x30, [sp, #32]             ; 16-byte Folded Spill
	add	x29, sp, #32
	.cfi_def_cfa w29, 16
	.cfi_offset w30, -8
	.cfi_offset w29, -16
	adrp	x8, __ZTVNSt3__117bad_function_callE@GOTPAGE
	ldr	x8, [x8, __ZTVNSt3__117bad_function_callE@GOTPAGEOFF]
	add	x8, x8, #16
	str	x8, [sp, #16]                   ; 8-byte Folded Spill
	stur	x0, [x29, #-8]
	ldur	x0, [x29, #-8]
	str	x0, [sp, #8]                    ; 8-byte Folded Spill
	bl	__ZNSt9exceptionC2B7v160006Ev
	ldr	x0, [sp, #8]                    ; 8-byte Folded Reload
	ldr	x8, [sp, #16]                   ; 8-byte Folded Reload
	str	x8, [x0]
	ldp	x29, x30, [sp, #32]             ; 16-byte Folded Reload
	add	sp, sp, #48
	ret
	.cfi_endproc
                                        ; -- End function
	.private_extern	__ZNSt9exceptionC2B7v160006Ev ; -- Begin function _ZNSt9exceptionC2B7v160006Ev
	.globl	__ZNSt9exceptionC2B7v160006Ev
	.weak_def_can_be_hidden	__ZNSt9exceptionC2B7v160006Ev
	.p2align	2
__ZNSt9exceptionC2B7v160006Ev:          ; @_ZNSt9exceptionC2B7v160006Ev
	.cfi_startproc
; %bb.0:
	sub	sp, sp, #16
	.cfi_def_cfa_offset 16
	adrp	x8, __ZTVSt9exception@GOTPAGE
	ldr	x8, [x8, __ZTVSt9exception@GOTPAGEOFF]
	add	x8, x8, #16
	str	x0, [sp, #8]
	ldr	x0, [sp, #8]
	str	x8, [x0]
	add	sp, sp, #16
	ret
	.cfi_endproc
                                        ; -- End function
	.globl	__ZNSt3__117bad_function_callD0Ev ; -- Begin function _ZNSt3__117bad_function_callD0Ev
	.weak_def_can_be_hidden	__ZNSt3__117bad_function_callD0Ev
	.p2align	2
__ZNSt3__117bad_function_callD0Ev:      ; @_ZNSt3__117bad_function_callD0Ev
	.cfi_startproc
; %bb.0:
	sub	sp, sp, #32
	.cfi_def_cfa_offset 32
	stp	x29, x30, [sp, #16]             ; 16-byte Folded Spill
	add	x29, sp, #16
	.cfi_def_cfa w29, 16
	.cfi_offset w30, -8
	.cfi_offset w29, -16
	str	x0, [sp, #8]
	ldr	x0, [sp, #8]
	str	x0, [sp]                        ; 8-byte Folded Spill
	bl	__ZNSt3__117bad_function_callD1Ev
	ldr	x0, [sp]                        ; 8-byte Folded Reload
	bl	__ZdlPv
	ldp	x29, x30, [sp, #16]             ; 16-byte Folded Reload
	add	sp, sp, #32
	ret
	.cfi_endproc
                                        ; -- End function
	.globl	__ZNSt3__117bad_function_callD2Ev ; -- Begin function _ZNSt3__117bad_function_callD2Ev
	.weak_def_can_be_hidden	__ZNSt3__117bad_function_callD2Ev
	.p2align	2
__ZNSt3__117bad_function_callD2Ev:      ; @_ZNSt3__117bad_function_callD2Ev
	.cfi_startproc
; %bb.0:
	sub	sp, sp, #32
	.cfi_def_cfa_offset 32
	stp	x29, x30, [sp, #16]             ; 16-byte Folded Spill
	add	x29, sp, #16
	.cfi_def_cfa w29, 16
	.cfi_offset w30, -8
	.cfi_offset w29, -16
	str	x0, [sp, #8]
	ldr	x0, [sp, #8]
	str	x0, [sp]                        ; 8-byte Folded Spill
	bl	__ZNSt9exceptionD2Ev
	ldr	x0, [sp]                        ; 8-byte Folded Reload
	ldp	x29, x30, [sp, #16]             ; 16-byte Folded Reload
	add	sp, sp, #32
	ret
	.cfi_endproc
                                        ; -- End function
	.globl	__ZNSt3__18functionIFvvEED2Ev   ; -- Begin function _ZNSt3__18functionIFvvEED2Ev
	.weak_def_can_be_hidden	__ZNSt3__18functionIFvvEED2Ev
	.p2align	2
__ZNSt3__18functionIFvvEED2Ev:          ; @_ZNSt3__18functionIFvvEED2Ev
	.cfi_startproc
; %bb.0:
	sub	sp, sp, #32
	.cfi_def_cfa_offset 32
	stp	x29, x30, [sp, #16]             ; 16-byte Folded Spill
	add	x29, sp, #16
	.cfi_def_cfa w29, 16
	.cfi_offset w30, -8
	.cfi_offset w29, -16
	str	x0, [sp, #8]
	ldr	x0, [sp, #8]
	str	x0, [sp]                        ; 8-byte Folded Spill
	bl	__ZNSt3__110__function12__value_funcIFvvEED1B7v160006Ev
	ldr	x0, [sp]                        ; 8-byte Folded Reload
	ldp	x29, x30, [sp, #16]             ; 16-byte Folded Reload
	add	sp, sp, #32
	ret
	.cfi_endproc
                                        ; -- End function
	.private_extern	__ZNSt3__110__function12__value_funcIFvvEED1B7v160006Ev ; -- Begin function _ZNSt3__110__function12__value_funcIFvvEED1B7v160006Ev
	.globl	__ZNSt3__110__function12__value_funcIFvvEED1B7v160006Ev
	.weak_def_can_be_hidden	__ZNSt3__110__function12__value_funcIFvvEED1B7v160006Ev
	.p2align	2
__ZNSt3__110__function12__value_funcIFvvEED1B7v160006Ev: ; @_ZNSt3__110__function12__value_funcIFvvEED1B7v160006Ev
	.cfi_startproc
; %bb.0:
	sub	sp, sp, #32
	.cfi_def_cfa_offset 32
	stp	x29, x30, [sp, #16]             ; 16-byte Folded Spill
	add	x29, sp, #16
	.cfi_def_cfa w29, 16
	.cfi_offset w30, -8
	.cfi_offset w29, -16
	str	x0, [sp, #8]
	ldr	x0, [sp, #8]
	str	x0, [sp]                        ; 8-byte Folded Spill
	bl	__ZNSt3__110__function12__value_funcIFvvEED2B7v160006Ev
	ldr	x0, [sp]                        ; 8-byte Folded Reload
	ldp	x29, x30, [sp, #16]             ; 16-byte Folded Reload
	add	sp, sp, #32
	ret
	.cfi_endproc
                                        ; -- End function
	.private_extern	__ZNSt3__110__function12__value_funcIFvvEED2B7v160006Ev ; -- Begin function _ZNSt3__110__function12__value_funcIFvvEED2B7v160006Ev
	.globl	__ZNSt3__110__function12__value_funcIFvvEED2B7v160006Ev
	.weak_def_can_be_hidden	__ZNSt3__110__function12__value_funcIFvvEED2B7v160006Ev
	.p2align	2
__ZNSt3__110__function12__value_funcIFvvEED2B7v160006Ev: ; @_ZNSt3__110__function12__value_funcIFvvEED2B7v160006Ev
	.cfi_startproc
; %bb.0:
	sub	sp, sp, #48
	.cfi_def_cfa_offset 48
	stp	x29, x30, [sp, #32]             ; 16-byte Folded Spill
	add	x29, sp, #32
	.cfi_def_cfa w29, 16
	.cfi_offset w30, -8
	.cfi_offset w29, -16
	str	x0, [sp, #16]
	ldr	x9, [sp, #16]
	str	x9, [sp, #8]                    ; 8-byte Folded Spill
	mov	x8, x9
	stur	x8, [x29, #-8]
	ldr	x8, [x9, #24]
	subs	x8, x8, x9
	cset	w8, ne
	tbnz	w8, #0, LBB173_2
	b	LBB173_1
LBB173_1:
	ldr	x8, [sp, #8]                    ; 8-byte Folded Reload
	ldr	x0, [x8, #24]
	ldr	x8, [x0]
	ldr	x8, [x8, #32]
	blr	x8
	b	LBB173_5
LBB173_2:
	ldr	x8, [sp, #8]                    ; 8-byte Folded Reload
	ldr	x8, [x8, #24]
	subs	x8, x8, #0
	cset	w8, eq
	tbnz	w8, #0, LBB173_4
	b	LBB173_3
LBB173_3:
	ldr	x8, [sp, #8]                    ; 8-byte Folded Reload
	ldr	x0, [x8, #24]
	ldr	x8, [x0]
	ldr	x8, [x8, #40]
	blr	x8
	b	LBB173_4
LBB173_4:
	b	LBB173_5
LBB173_5:
	ldur	x0, [x29, #-8]
	ldp	x29, x30, [sp, #32]             ; 16-byte Folded Reload
	add	sp, sp, #48
	ret
	.cfi_endproc
                                        ; -- End function
	.private_extern	__ZNSt3__111unique_lockINS_5mutexEED2B7v160006Ev ; -- Begin function _ZNSt3__111unique_lockINS_5mutexEED2B7v160006Ev
	.globl	__ZNSt3__111unique_lockINS_5mutexEED2B7v160006Ev
	.weak_def_can_be_hidden	__ZNSt3__111unique_lockINS_5mutexEED2B7v160006Ev
	.p2align	2
__ZNSt3__111unique_lockINS_5mutexEED2B7v160006Ev: ; @_ZNSt3__111unique_lockINS_5mutexEED2B7v160006Ev
	.cfi_startproc
; %bb.0:
	sub	sp, sp, #48
	.cfi_def_cfa_offset 48
	stp	x29, x30, [sp, #32]             ; 16-byte Folded Spill
	add	x29, sp, #32
	.cfi_def_cfa w29, 16
	.cfi_offset w30, -8
	.cfi_offset w29, -16
	str	x0, [sp, #16]
	ldr	x8, [sp, #16]
	str	x8, [sp, #8]                    ; 8-byte Folded Spill
	mov	x9, x8
	stur	x9, [x29, #-8]
	ldrb	w8, [x8, #8]
	tbz	w8, #0, LBB174_2
	b	LBB174_1
LBB174_1:
	ldr	x8, [sp, #8]                    ; 8-byte Folded Reload
	ldr	x0, [x8]
	bl	__ZNSt3__15mutex6unlockEv
	b	LBB174_2
LBB174_2:
	ldur	x0, [x29, #-8]
	ldp	x29, x30, [sp, #32]             ; 16-byte Folded Reload
	add	sp, sp, #48
	ret
	.cfi_endproc
                                        ; -- End function
	.private_extern	__ZNSt3__112__tuple_leafILm1EZN10ThreadPoolC1EmEUlvE_Lb0EE3getB7v160006Ev ; -- Begin function _ZNSt3__112__tuple_leafILm1EZN10ThreadPoolC1EmEUlvE_Lb0EE3getB7v160006Ev
	.globl	__ZNSt3__112__tuple_leafILm1EZN10ThreadPoolC1EmEUlvE_Lb0EE3getB7v160006Ev
	.weak_definition	__ZNSt3__112__tuple_leafILm1EZN10ThreadPoolC1EmEUlvE_Lb0EE3getB7v160006Ev
	.p2align	2
__ZNSt3__112__tuple_leafILm1EZN10ThreadPoolC1EmEUlvE_Lb0EE3getB7v160006Ev: ; @_ZNSt3__112__tuple_leafILm1EZN10ThreadPoolC1EmEUlvE_Lb0EE3getB7v160006Ev
	.cfi_startproc
; %bb.0:
	sub	sp, sp, #16
	.cfi_def_cfa_offset 16
	str	x0, [sp, #8]
	ldr	x0, [sp, #8]
	add	sp, sp, #16
	ret
	.cfi_endproc
                                        ; -- End function
	.private_extern	__ZNKSt3__117__compressed_pairIPNS_5tupleIJNS_10unique_ptrINS_15__thread_structENS_14default_deleteIS3_EEEEZN10ThreadPoolC1EmEUlvE_EEENS4_IS9_EEE5firstB7v160006Ev ; -- Begin function _ZNKSt3__117__compressed_pairIPNS_5tupleIJNS_10unique_ptrINS_15__thread_structENS_14default_deleteIS3_EEEEZN10ThreadPoolC1EmEUlvE_EEENS4_IS9_EEE5firstB7v160006Ev
	.globl	__ZNKSt3__117__compressed_pairIPNS_5tupleIJNS_10unique_ptrINS_15__thread_structENS_14default_deleteIS3_EEEEZN10ThreadPoolC1EmEUlvE_EEENS4_IS9_EEE5firstB7v160006Ev
	.weak_definition	__ZNKSt3__117__compressed_pairIPNS_5tupleIJNS_10unique_ptrINS_15__thread_structENS_14default_deleteIS3_EEEEZN10ThreadPoolC1EmEUlvE_EEENS4_IS9_EEE5firstB7v160006Ev
	.p2align	2
__ZNKSt3__117__compressed_pairIPNS_5tupleIJNS_10unique_ptrINS_15__thread_structENS_14default_deleteIS3_EEEEZN10ThreadPoolC1EmEUlvE_EEENS4_IS9_EEE5firstB7v160006Ev: ; @_ZNKSt3__117__compressed_pairIPNS_5tupleIJNS_10unique_ptrINS_15__thread_structENS_14default_deleteIS3_EEEEZN10ThreadPoolC1EmEUlvE_EEENS4_IS9_EEE5firstB7v160006Ev
	.cfi_startproc
; %bb.0:
	sub	sp, sp, #32
	.cfi_def_cfa_offset 32
	stp	x29, x30, [sp, #16]             ; 16-byte Folded Spill
	add	x29, sp, #16
	.cfi_def_cfa w29, 16
	.cfi_offset w30, -8
	.cfi_offset w29, -16
	str	x0, [sp, #8]
	ldr	x0, [sp, #8]
	bl	__ZNKSt3__122__compressed_pair_elemIPNS_5tupleIJNS_10unique_ptrINS_15__thread_structENS_14default_deleteIS3_EEEEZN10ThreadPoolC1EmEUlvE_EEELi0ELb0EE5__getB7v160006Ev
	ldp	x29, x30, [sp, #16]             ; 16-byte Folded Reload
	add	sp, sp, #32
	ret
	.cfi_endproc
                                        ; -- End function
	.private_extern	__ZNKSt3__122__compressed_pair_elemIPNS_5tupleIJNS_10unique_ptrINS_15__thread_structENS_14default_deleteIS3_EEEEZN10ThreadPoolC1EmEUlvE_EEELi0ELb0EE5__getB7v160006Ev ; -- Begin function _ZNKSt3__122__compressed_pair_elemIPNS_5tupleIJNS_10unique_ptrINS_15__thread_structENS_14default_deleteIS3_EEEEZN10ThreadPoolC1EmEUlvE_EEELi0ELb0EE5__getB7v160006Ev
	.globl	__ZNKSt3__122__compressed_pair_elemIPNS_5tupleIJNS_10unique_ptrINS_15__thread_structENS_14default_deleteIS3_EEEEZN10ThreadPoolC1EmEUlvE_EEELi0ELb0EE5__getB7v160006Ev
	.weak_definition	__ZNKSt3__122__compressed_pair_elemIPNS_5tupleIJNS_10unique_ptrINS_15__thread_structENS_14default_deleteIS3_EEEEZN10ThreadPoolC1EmEUlvE_EEELi0ELb0EE5__getB7v160006Ev
	.p2align	2
__ZNKSt3__122__compressed_pair_elemIPNS_5tupleIJNS_10unique_ptrINS_15__thread_structENS_14default_deleteIS3_EEEEZN10ThreadPoolC1EmEUlvE_EEELi0ELb0EE5__getB7v160006Ev: ; @_ZNKSt3__122__compressed_pair_elemIPNS_5tupleIJNS_10unique_ptrINS_15__thread_structENS_14default_deleteIS3_EEEEZN10ThreadPoolC1EmEUlvE_EEELi0ELb0EE5__getB7v160006Ev
	.cfi_startproc
; %bb.0:
	sub	sp, sp, #16
	.cfi_def_cfa_offset 16
	str	x0, [sp, #8]
	ldr	x0, [sp, #8]
	add	sp, sp, #16
	ret
	.cfi_endproc
                                        ; -- End function
	.private_extern	__ZNSt3__117__compressed_pairIPNS_5tupleIJNS_10unique_ptrINS_15__thread_structENS_14default_deleteIS3_EEEEZN10ThreadPoolC1EmEUlvE_EEENS4_IS9_EEE5firstB7v160006Ev ; -- Begin function _ZNSt3__117__compressed_pairIPNS_5tupleIJNS_10unique_ptrINS_15__thread_structENS_14default_deleteIS3_EEEEZN10ThreadPoolC1EmEUlvE_EEENS4_IS9_EEE5firstB7v160006Ev
	.globl	__ZNSt3__117__compressed_pairIPNS_5tupleIJNS_10unique_ptrINS_15__thread_structENS_14default_deleteIS3_EEEEZN10ThreadPoolC1EmEUlvE_EEENS4_IS9_EEE5firstB7v160006Ev
	.weak_definition	__ZNSt3__117__compressed_pairIPNS_5tupleIJNS_10unique_ptrINS_15__thread_structENS_14default_deleteIS3_EEEEZN10ThreadPoolC1EmEUlvE_EEENS4_IS9_EEE5firstB7v160006Ev
	.p2align	2
__ZNSt3__117__compressed_pairIPNS_5tupleIJNS_10unique_ptrINS_15__thread_structENS_14default_deleteIS3_EEEEZN10ThreadPoolC1EmEUlvE_EEENS4_IS9_EEE5firstB7v160006Ev: ; @_ZNSt3__117__compressed_pairIPNS_5tupleIJNS_10unique_ptrINS_15__thread_structENS_14default_deleteIS3_EEEEZN10ThreadPoolC1EmEUlvE_EEENS4_IS9_EEE5firstB7v160006Ev
	.cfi_startproc
; %bb.0:
	sub	sp, sp, #32
	.cfi_def_cfa_offset 32
	stp	x29, x30, [sp, #16]             ; 16-byte Folded Spill
	add	x29, sp, #16
	.cfi_def_cfa w29, 16
	.cfi_offset w30, -8
	.cfi_offset w29, -16
	str	x0, [sp, #8]
	ldr	x0, [sp, #8]
	bl	__ZNSt3__122__compressed_pair_elemIPNS_5tupleIJNS_10unique_ptrINS_15__thread_structENS_14default_deleteIS3_EEEEZN10ThreadPoolC1EmEUlvE_EEELi0ELb0EE5__getB7v160006Ev
	ldp	x29, x30, [sp, #16]             ; 16-byte Folded Reload
	add	sp, sp, #32
	ret
	.cfi_endproc
                                        ; -- End function
	.private_extern	__ZNSt3__122__compressed_pair_elemIPNS_5tupleIJNS_10unique_ptrINS_15__thread_structENS_14default_deleteIS3_EEEEZN10ThreadPoolC1EmEUlvE_EEELi0ELb0EE5__getB7v160006Ev ; -- Begin function _ZNSt3__122__compressed_pair_elemIPNS_5tupleIJNS_10unique_ptrINS_15__thread_structENS_14default_deleteIS3_EEEEZN10ThreadPoolC1EmEUlvE_EEELi0ELb0EE5__getB7v160006Ev
	.globl	__ZNSt3__122__compressed_pair_elemIPNS_5tupleIJNS_10unique_ptrINS_15__thread_structENS_14default_deleteIS3_EEEEZN10ThreadPoolC1EmEUlvE_EEELi0ELb0EE5__getB7v160006Ev
	.weak_definition	__ZNSt3__122__compressed_pair_elemIPNS_5tupleIJNS_10unique_ptrINS_15__thread_structENS_14default_deleteIS3_EEEEZN10ThreadPoolC1EmEUlvE_EEELi0ELb0EE5__getB7v160006Ev
	.p2align	2
__ZNSt3__122__compressed_pair_elemIPNS_5tupleIJNS_10unique_ptrINS_15__thread_structENS_14default_deleteIS3_EEEEZN10ThreadPoolC1EmEUlvE_EEELi0ELb0EE5__getB7v160006Ev: ; @_ZNSt3__122__compressed_pair_elemIPNS_5tupleIJNS_10unique_ptrINS_15__thread_structENS_14default_deleteIS3_EEEEZN10ThreadPoolC1EmEUlvE_EEELi0ELb0EE5__getB7v160006Ev
	.cfi_startproc
; %bb.0:
	sub	sp, sp, #16
	.cfi_def_cfa_offset 16
	str	x0, [sp, #8]
	ldr	x0, [sp, #8]
	add	sp, sp, #16
	ret
	.cfi_endproc
                                        ; -- End function
	.private_extern	__ZNSt3__110unique_ptrINS_5tupleIJNS0_INS_15__thread_structENS_14default_deleteIS2_EEEEZN10ThreadPoolC1EmEUlvE_EEENS3_IS8_EEED2B7v160006Ev ; -- Begin function _ZNSt3__110unique_ptrINS_5tupleIJNS0_INS_15__thread_structENS_14default_deleteIS2_EEEEZN10ThreadPoolC1EmEUlvE_EEENS3_IS8_EEED2B7v160006Ev
	.globl	__ZNSt3__110unique_ptrINS_5tupleIJNS0_INS_15__thread_structENS_14default_deleteIS2_EEEEZN10ThreadPoolC1EmEUlvE_EEENS3_IS8_EEED2B7v160006Ev
	.weak_def_can_be_hidden	__ZNSt3__110unique_ptrINS_5tupleIJNS0_INS_15__thread_structENS_14default_deleteIS2_EEEEZN10ThreadPoolC1EmEUlvE_EEENS3_IS8_EEED2B7v160006Ev
	.p2align	2
__ZNSt3__110unique_ptrINS_5tupleIJNS0_INS_15__thread_structENS_14default_deleteIS2_EEEEZN10ThreadPoolC1EmEUlvE_EEENS3_IS8_EEED2B7v160006Ev: ; @_ZNSt3__110unique_ptrINS_5tupleIJNS0_INS_15__thread_structENS_14default_deleteIS2_EEEEZN10ThreadPoolC1EmEUlvE_EEENS3_IS8_EEED2B7v160006Ev
	.cfi_startproc
; %bb.0:
	sub	sp, sp, #32
	.cfi_def_cfa_offset 32
	stp	x29, x30, [sp, #16]             ; 16-byte Folded Spill
	add	x29, sp, #16
	.cfi_def_cfa w29, 16
	.cfi_offset w30, -8
	.cfi_offset w29, -16
	str	x0, [sp, #8]
	ldr	x0, [sp, #8]
	str	x0, [sp]                        ; 8-byte Folded Spill
	mov	x1, #0
	bl	__ZNSt3__110unique_ptrINS_5tupleIJNS0_INS_15__thread_structENS_14default_deleteIS2_EEEEZN10ThreadPoolC1EmEUlvE_EEENS3_IS8_EEE5resetB7v160006EPS8_
	ldr	x0, [sp]                        ; 8-byte Folded Reload
	ldp	x29, x30, [sp, #16]             ; 16-byte Folded Reload
	add	sp, sp, #32
	ret
	.cfi_endproc
                                        ; -- End function
	.private_extern	__ZNSt3__110unique_ptrINS_5tupleIJNS0_INS_15__thread_structENS_14default_deleteIS2_EEEEZN10ThreadPoolC1EmEUlvE_EEENS3_IS8_EEE5resetB7v160006EPS8_ ; -- Begin function _ZNSt3__110unique_ptrINS_5tupleIJNS0_INS_15__thread_structENS_14default_deleteIS2_EEEEZN10ThreadPoolC1EmEUlvE_EEENS3_IS8_EEE5resetB7v160006EPS8_
	.globl	__ZNSt3__110unique_ptrINS_5tupleIJNS0_INS_15__thread_structENS_14default_deleteIS2_EEEEZN10ThreadPoolC1EmEUlvE_EEENS3_IS8_EEE5resetB7v160006EPS8_
	.weak_definition	__ZNSt3__110unique_ptrINS_5tupleIJNS0_INS_15__thread_structENS_14default_deleteIS2_EEEEZN10ThreadPoolC1EmEUlvE_EEENS3_IS8_EEE5resetB7v160006EPS8_
	.p2align	2
